(dp1
(S'120'
p2
S'2003'
tp3
S'136'
p4
s(S'63'
p5
S'2012'
tp6
S'35'
p7
s(S'49'
p8
S'2007'
tp9
S'72'
p10
s(S'69'
S'2013'
tp11
S'36'
p12
s(S'112'
p13
S'2003'
tp14
S'24'
p15
s(S'19'
p16
S'2011'
tp17
S'25'
p18
s(S'34'
p19
S'2012'
tp20
S'44'
p21
s(S'22'
p22
S'2007'
tp23
S'4'
s(S'111'
p24
S'2011'
tp25
S'17'
p26
s(S'66'
S'2013'
tp27
S'17'
p28
s(S'105'
p29
S'2003'
tp30
S'85'
p31
s(S'81'
p32
S'2011'
tp33
S'59'
p34
s(S'114'
p35
S'2003'
tp36
S'94'
p37
s(S'25'
p38
S'2006'
tp39
S'97'
p40
s(S'20'
p41
S'2010'
tp42
S'20'
p43
s(S'43'
p44
S'2005'
tp45
S'199'
p46
s(S'24'
p47
S'2007'
tp48
S'60'
p49
s(S'41'
p50
S'2005'
tp51
S'68'
p52
s(S'7'
S'2004'
tp53
S'39'
p54
s(S'42'
p55
S'2008'
tp56
S'45'
p57
s(S'70'
p58
S'2010'
tp59
S'86'
p60
s(S'22'
p61
S'2012'
tp62
S'9'
s(S'84'
p63
S'2010'
tp64
S'17'
p65
s(S'103'
p66
S'2009'
tp67
S'45'
p68
s(S'44'
p69
S'2006'
tp70
S'255'
p71
s(S'78'
S'2013'
tp72
S'20'
p73
s(g29
S'2007'
tp74
S'84'
p75
s(S'62'
p76
S'2011'
tp77
S'23'
p78
s(S'101'
p79
S'2009'
tp80
S'26'
p81
s(S'76'
p82
S'2011'
tp83
S'10'
p84
s(S'68'
p85
S'2009'
tp86
S'13'
p87
s(S'5'
S'2006'
tp88
S'54'
p89
s(S'42'
p90
S'2006'
tp91
S'95'
p92
s(S'48'
p93
S'2005'
tp94
S'76'
p95
s(S'42'
S'2013'
tp96
S'44'
p97
s(S'25'
p98
S'2010'
tp99
S'34'
p100
s(S'106'
p101
S'2012'
tp102
S'33'
p103
s(S'50'
p104
S'2005'
tp105
S'49'
p106
s(S'73'
p107
S'2004'
tp108
S'127'
p109
s(S'10'
p110
S'2008'
tp111
S'29'
p112
s(S'72'
p113
S'2011'
tp114
S'25'
p115
s(S'66'
p116
S'2008'
tp117
S'22'
p118
s(S'115'
p119
S'2005'
tp120
S'87'
p121
s(g90
S'2003'
tp122
S'74'
p123
s(S'78'
p124
S'2005'
tp125
S'52'
p126
s(S'40'
p127
S'2007'
tp128
S'162'
p129
s(S'44'
p130
S'2010'
tp131
S'95'
p132
s(S'61'
p133
S'2009'
tp134
S'28'
p135
s(S'109'
p136
S'2006'
tp137
S'77'
p138
s(S'90'
p139
S'2005'
tp140
S'87'
p141
s(g32
S'2009'
tp142
S'40'
p143
s(S'47'
p144
S'2006'
tp145
S'140'
p146
s(S'106'
p147
S'2005'
tp148
S'53'
p149
s(S'104'
p150
S'2005'
tp151
S'53'
p152
s(S'105'
p153
S'2008'
tp154
S'18'
p155
s(S'100'
p156
S'2003'
tp157
S'41'
p158
s(S'9'
S'2004'
tp159
S'95'
p160
s(S'60'
p161
S'2011'
tp162
S'25'
p163
s(S'103'
p164
S'2004'
tp165
S'107'
p166
s(S'40'
p167
S'2010'
tp168
S'36'
p169
s(S'26'
S'2013'
tp170
S'14'
p171
s(S'71'
p172
S'2005'
tp173
S'121'
p174
s(S'94'
p175
S'2008'
tp176
S'15'
p177
s(S'40'
S'2013'
tp178
S'52'
p179
s(S'75'
p180
S'2003'
tp181
S'169'
p182
s(S'120'
p183
S'2011'
tp184
S'65'
p185
s(S'67'
p186
S'2006'
tp187
S'216'
p188
s(S'104'
S'2013'
tp189
S'30'
p190
s(S'14'
p191
S'2006'
tp192
S'192'
p193
s(S'76'
p194
S'2004'
tp195
S'36'
p196
s(S'26'
p197
S'2008'
tp198
S'17'
p199
s(g197
S'2009'
tp200
S'19'
p201
s(S'100'
p202
S'2010'
tp203
S'18'
p204
s(g144
S'2003'
tp205
S'112'
p206
s(S'62'
p207
S'2005'
tp208
S'37'
p209
s(S'79'
p210
S'2007'
tp211
S'156'
p212
s(S'6'
S'2004'
tp213
S'78'
p214
s(S'7'
S'2008'
tp215
S'20'
p216
s(S'84'
p217
S'2005'
tp218
S'66'
p219
s(S'41'
p220
S'2012'
tp221
S'53'
p222
s(S'79'
p223
S'2011'
tp224
S'51'
p225
s(S'33'
p226
S'2003'
tp227
S'58'
p228
s(S'83'
p229
S'2004'
tp230
S'85'
p231
s(S'115'
p232
S'2012'
tp233
S'20'
p234
s(S'112'
p235
S'2012'
tp236
S'14'
p237
s(g63
S'2009'
tp238
S'16'
p239
s(S'5'
S'2008'
tp240
S'14'
p241
s(S'122'
p242
S'2004'
tp243
S'59'
p244
s(S'102'
p245
S'2011'
tp246
S'21'
p247
s(S'123'
p248
S'2003'
tp249
S'29'
p250
s(g220
S'2010'
tp251
S'72'
p252
s(g245
S'2008'
tp253
S'22'
p254
s(g235
S'2008'
tp255
S'8'
s(S'23'
p256
S'2003'
tp257
S'101'
p258
s(S'48'
p259
S'2009'
tp260
S'59'
p261
s(S'14'
p262
S'2008'
tp263
S'60'
p264
s(g79
S'2012'
tp265
S'51'
p266
s(S'10'
S'2013'
tp267
S'18'
p268
s(S'66'
p269
S'2006'
tp270
S'49'
p271
s(S'110'
p272
S'2006'
tp273
S'69'
p274
s(S'107'
p275
S'2010'
tp276
S'24'
p277
s(S'10'
p278
S'2005'
tp279
S'65'
p280
s(S'111'
p281
S'2007'
tp282
S'20'
p283
s(S'73'
p284
S'2012'
tp285
S'56'
p286
s(g38
S'2003'
tp287
S'79'
p288
s(S'61'
p289
S'2007'
tp290
S'79'
p291
s(g232
S'2009'
tp292
S'40'
p293
s(S'1'
S'2007'
tp294
S'75'
p295
s(S'60'
p296
S'2006'
tp297
S'110'
p298
s(S'28'
p299
S'2004'
tp300
S'84'
p301
s(g161
S'2009'
tp302
S'21'
p303
s(g156
S'2006'
tp304
S'33'
p305
s(g61
S'2008'
tp306
S'5'
s(S'18'
p307
S'2007'
tp308
S'121'
p309
s(S'13'
p310
S'2010'
tp311
S'12'
p312
s(S'109'
p313
S'2010'
tp314
S'13'
p315
s(g242
S'2003'
tp316
S'61'
p317
s(S'19'
p318
S'2006'
tp319
S'77'
p320
s(S'69'
p321
S'2009'
tp322
S'33'
p323
s(g278
S'2006'
tp324
S'100'
p325
s(g248
S'2004'
tp326
S'21'
p327
s(S'68'
p328
S'2004'
tp329
S'52'
p330
s(g8
S'2005'
tp331
S'82'
p332
s(g321
S'2011'
tp333
S'29'
p334
s(S'113'
p335
S'2004'
tp336
S'99'
p337
s(S'71'
p338
S'2009'
tp339
S'42'
p340
s(S'111'
S'2013'
tp341
S'8'
s(S'1'
S'2011'
tp342
S'29'
p343
s(S'110'
p344
S'2012'
tp345
S'19'
p346
s(S'81'
S'2013'
tp347
S'37'
p348
s(g35
S'2005'
tp349
S'81'
p350
s(g82
S'2008'
tp351
S'16'
p352
s(g41
S'2012'
tp353
S'20'
p354
s(g44
S'2007'
tp355
S'200'
p356
s(g47
S'2005'
tp357
S'51'
p358
s(g50
S'2003'
tp359
S'52'
p360
s(S'7'
S'2006'
tp361
S'40'
p362
s(S'104'
p363
S'2011'
tp364
S'31'
p365
s(S'108'
p366
S'2004'
tp367
S'41'
p368
s(g58
S'2012'
tp369
S'52'
p370
s(g61
S'2010'
tp371
S'5'
s(g136
S'2003'
tp372
S'53'
p373
s(S'45'
p374
S'2010'
tp375
S'37'
p376
s(S'107'
p377
S'2005'
tp378
S'55'
p379
s(g29
S'2005'
tp380
S'86'
p381
s(S'49'
p382
S'2011'
tp383
S'35'
p384
s(g101
S'2008'
tp385
S'34'
p386
s(g16
S'2009'
tp387
S'22'
p388
s(S'43'
p389
S'2012'
tp390
S'38'
p391
s(g133
S'2011'
tp392
S'25'
p393
s(g235
S'2010'
tp394
S'16'
p395
s(S'5'
S'2004'
tp396
S'51'
p397
s(S'9'
S'2003'
tp398
S'61'
p399
s(S'70'
p400
S'2005'
tp401
S'153'
p402
s(g93
S'2007'
tp403
S'153'
p404
s(S'5'
S'2010'
tp405
S'20'
p406
s(S'32'
p407
S'2011'
tp408
S'48'
p409
s(S'72'
p410
S'2003'
tp411
S'58'
p412
s(S'17'
p413
S'2008'
tp414
S'14'
p415
s(g180
S'2006'
tp416
S'333'
p417
s(g24
S'2009'
tp418
S'6'
s(S'52'
p419
S'2003'
tp420
S'118'
p421
s(S'94'
p422
S'2003'
tp423
S'29'
p424
s(S'88'
p425
S'2004'
tp426
S'74'
p427
s(S'67'
p428
S'2012'
tp429
S'48'
p430
s(S'121'
p431
S'2012'
tp432
S'0'
s(S'34'
p433
S'2007'
tp434
S'88'
p435
s(g366
S'2003'
tp436
S'33'
p437
s(g124
S'2003'
tp438
S'36'
p439
s(g167
S'2009'
tp440
S'53'
p441
s(S'90'
p442
S'2009'
tp443
S'35'
p444
s(S'45'
p445
S'2006'
tp446
S'51'
p447
s(g269
S'2007'
tp448
S'29'
p449
s(g136
S'2004'
tp450
S'65'
p451
s(g139
S'2007'
tp452
S'102'
p453
s(S'28'
p454
S'2011'
tp455
S'31'
p456
s(S'28'
S'2013'
tp457
S'34'
p458
s(S'47'
p459
S'2008'
tp460
S'106'
p461
s(g220
S'2011'
tp462
S'43'
p463
s(g156
S'2004'
tp464
S'37'
p465
s(g147
S'2003'
tp466
S'31'
p467
s(S'47'
S'2013'
tp468
S'60'
p469
s(S'46'
p470
S'2005'
tp471
S'162'
p472
s(S'77'
p473
S'2010'
tp474
S'75'
p475
s(g164
S'2006'
tp476
S'178'
p477
s(S'75'
p478
S'2012'
tp479
S'98'
p480
s(g431
S'2009'
tp481
S'0'
s(S'102'
p482
S'2007'
tp483
S'83'
p484
s(g172
S'2007'
tp485
S'141'
p486
s(S'24'
p487
S'2011'
tp488
S'16'
p489
s(g113
S'2008'
tp490
S'26'
p491
s(S'23'
p492
S'2008'
tp493
S'35'
p494
s(S'120'
S'2013'
tp495
S'53'
p496
s(g186
S'2004'
tp497
S'170'
p498
s(S'113'
p499
S'2008'
tp500
S'38'
p501
s(g425
S'2003'
tp502
S'60'
p503
s(S'13'
p504
S'2005'
tp505
S'72'
p506
s(g400
S'2007'
tp507
S'170'
p508
s(S'77'
p509
S'2007'
tp510
S'145'
p511
s(S'122'
p512
S'2011'
tp513
S'29'
p514
s(g499
S'2010'
tp515
S'46'
p516
s(S'20'
p517
S'2007'
tp518
S'30'
p519
s(g207
S'2007'
tp520
S'59'
p521
s(S'114'
p522
S'2009'
tp523
S'28'
p524
s(g338
S'2012'
tp525
S'52'
p526
s(S'7'
S'2013'
tp527
S'18'
p528
s(g223
S'2009'
tp529
S'67'
p530
s(S'78'
p531
S'2011'
tp532
S'12'
p533
s(g487
S'2009'
tp534
S'28'
p535
s(g110
S'2009'
tp536
S'19'
p537
s(g217
S'2007'
tp538
S'63'
p539
s(S'123'
p540
S'2010'
tp541
S'11'
p542
s(g413
S'2011'
tp543
S'17'
p544
s(S'32'
p545
S'2004'
tp546
S'97'
p547
s(S'48'
S'2013'
tp548
S'34'
p549
s(g55
S'2012'
tp550
S'35'
p551
s(S'30'
p552
S'2004'
tp553
S'78'
p554
s(g229
S'2006'
tp555
S'159'
p556
s(g459
S'2011'
tp557
S'58'
p558
s(g76
S'2012'
tp559
S'23'
p560
s(g76
S'2008'
tp561
S'28'
p562
s(g256
S'2004'
tp563
S'104'
p564
s(S'102'
S'2013'
tp565
S'31'
p566
s(g313
S'2011'
tp567
S'29'
p568
s(g522
S'2011'
tp569
S'32'
p570
s(g66
S'2012'
tp571
S'38'
p572
s(g328
S'2003'
tp573
S'41'
p574
s(g13
S'2006'
tp575
S'31'
p576
s(S'17'
p577
S'2006'
tp578
S'51'
p579
s(g284
S'2009'
tp580
S'98'
p581
s(g110
S'2011'
tp582
S'33'
p583
s(g22
S'2004'
tp584
S'3'
s(S'32'
S'2013'
tp585
S'27'
p586
s(S'30'
p587
S'2009'
tp588
S'21'
p589
s(g278
S'2007'
tp590
S'79'
p591
s(g281
S'2005'
tp592
S'32'
p593
s(S'90'
S'2013'
tp594
S'21'
p595
s(g38
S'2005'
tp596
S'116'
p597
s(g389
S'2008'
tp598
S'64'
p599
s(g5
S'2009'
tp600
S'24'
p601
s(S'1'
S'2005'
tp602
S'57'
p603
s(g296
S'2004'
tp604
S'67'
p605
s(g180
S'2004'
tp606
S'228'
p607
s(g232
S'2011'
tp608
S'24'
p609
s(S'6'
S'2009'
tp610
S'31'
p611
s(S'33'
p612
S'2008'
tp613
S'31'
p614
s(g419
S'2005'
tp615
S'126'
p616
s(S'18'
p617
S'2009'
tp618
S'30'
p619
s(g318
S'2004'
tp620
S'79'
p621
s(S'33'
S'2013'
tp622
S'33'
p623
s(g478
S'2010'
tp624
S'131'
p625
s(g82
S'2012'
tp626
S'25'
p627
s(S'107'
S'2013'
tp628
S'21'
p629
s(g2
S'2007'
tp630
S'164'
p631
s(g8
S'2003'
tp632
S'55'
p633
s(S'73'
S'2013'
tp634
S'48'
p635
s(g335
S'2006'
tp636
S'109'
p637
s(g428
S'2010'
tp638
S'53'
p639
s(S'83'
S'2013'
tp640
S'51'
p641
s(g344
S'2009'
tp642
S'21'
p643
s(g410
S'2004'
tp644
S'60'
p645
s(S'1'
S'2013'
tp646
S'16'
p647
s(g101
S'2011'
tp648
S'29'
p649
s(S'50'
p650
S'2008'
tp651
S'27'
p652
s(g344
S'2010'
tp653
S'19'
p654
s(g41
S'2009'
tp655
S'15'
p656
s(g422
S'2004'
tp657
S'31'
p658
s(g35
S'2007'
tp659
S'108'
p660
s(g113
S'2012'
tp661
S'29'
p662
s(g161
S'2012'
tp663
S'24'
p664
s(g617
S'2011'
tp665
S'27'
p666
s(g119
S'2006'
tp667
S'69'
p668
s(g366
S'2006'
tp669
S'47'
p670
s(g587
S'2010'
tp671
S'29'
p672
s(g127
S'2004'
tp673
S'126'
p674
s(S'14'
S'2013'
tp675
S'32'
p676
s(g445
S'2003'
tp677
S'43'
p678
s(S'9'
S'2010'
tp679
S'24'
p680
s(g150
S'2007'
tp681
S'53'
p682
s(g374
S'2012'
tp683
S'22'
p684
s(g377
S'2007'
tp685
S'42'
p686
s(g144
S'2005'
tp687
S'141'
p688
s(S'49'
S'2013'
tp689
S'23'
p690
s(g147
S'2006'
tp691
S'63'
p692
s(g389
S'2010'
tp693
S'54'
p694
s(g552
S'2006'
tp695
S'60'
p696
s(g85
S'2010'
tp697
S'13'
p698
s(g164
S'2003'
tp699
S'100'
p700
s(g400
S'2003'
tp701
S'90'
p702
s(S'114'
S'2013'
tp703
S'25'
p704
s(S'5'
S'2012'
tp705
S'13'
p706
s(g363
S'2012'
tp707
S'31'
p708
s(g116
S'2011'
tp709
S'11'
p710
s(g191
S'2005'
tp711
S'180'
p712
s(g389
S'2011'
tp713
S'51'
p714
s(g194
S'2003'
tp715
S'45'
p716
s(g310
S'2008'
tp717
S'22'
p718
s(g284
S'2008'
tp719
S'72'
p720
s(g433
S'2005'
tp721
S'73'
p722
s(S'6'
S'2011'
tp723
S'40'
p724
s(g98
S'2009'
tp725
S'22'
p726
s(g445
S'2004'
tp727
S'46'
p728
s(g210
S'2004'
tp729
S'100'
p730
s(S'1'
S'2009'
tp731
S'9'
s(S'6'
S'2007'
tp732
S'103'
p733
s(g130
S'2009'
tp734
S'98'
p735
s(g161
S'2008'
tp736
S'24'
p737
s(g492
S'2011'
tp738
S'39'
p739
s(g504
S'2007'
tp740
S'91'
p741
s(g363
S'2009'
tp742
S'32'
p743
s(g407
S'2008'
tp744
S'76'
p745
s(g419
S'2007'
tp746
S'187'
p747
s(S'101'
p748
S'2006'
tp749
S'101'
p750
s(g229
S'2003'
tp751
S'94'
p752
s(g473
S'2012'
tp753
S'53'
p754
s(g512
S'2009'
tp755
S'25'
p756
s(S'9'
S'2008'
tp757
S'31'
p758
s(g66
S'2008'
tp759
S'64'
p760
s(S'50'
S'2013'
tp761
S'15'
p762
s(g650
S'2011'
tp763
S'18'
p764
s(g16
S'2012'
tp765
S'18'
p766
s(g482
S'2005'
tp767
S'70'
p768
s(S'24'
S'2013'
tp769
S'29'
p770
s(S'88'
p771
S'2008'
tp772
S'17'
p773
s(g175
S'2010'
tp774
S'13'
p775
s(g256
S'2006'
tp776
S'123'
p777
s(g197
S'2011'
tp778
S'11'
p779
s(g269
S'2003'
tp780
S'22'
p781
s(g272
S'2005'
tp782
S'78'
p783
s(S'46'
p784
S'2012'
tp785
S'78'
p786
s(g509
S'2005'
tp787
S'155'
p788
s(S'26'
p789
S'2005'
tp790
S'41'
p791
s(g517
S'2005'
tp792
S'48'
p793
s(S'18'
S'2013'
tp794
S'29'
p795
s(g338
S'2010'
tp796
S'53'
p797
s(S'7'
S'2011'
tp798
S'32'
p799
s(S'105'
S'2013'
tp800
S'44'
p801
s(S'63'
p802
S'2006'
tp803
S'58'
p804
s(g296
S'2003'
tp805
S'53'
p806
s(g540
S'2012'
tp807
S'10'
p808
s(S'81'
p809
S'2006'
tp810
S'125'
p811
s(g545
S'2006'
tp812
S'154'
p813
s(g612
S'2012'
tp814
S'28'
p815
s(g470
S'2007'
tp816
S'198'
p817
s(g226
S'2007'
tp818
S'91'
p819
s(S'83'
p820
S'2008'
tp821
S'52'
p822
s(g76
S'2010'
tp823
S'10'
p824
s(g318
S'2003'
tp825
S'65'
p826
s(S'69'
p827
S'2004'
tp828
S'60'
p829
s(g366
S'2007'
tp830
S'38'
p831
s(S'109'
S'2013'
tp832
S'28'
p833
s(g248
S'2007'
tp834
S'21'
p835
s(g66
S'2010'
tp836
S'40'
p837
s(g5
S'2011'
tp838
S'32'
p839
s(g382
S'2008'
tp840
S'35'
p841
s(g321
S'2012'
tp842
S'30'
p843
s(g13
S'2004'
tp844
S'38'
p845
s(g820
S'2012'
tp846
S'55'
p847
s(g19
S'2011'
tp848
S'41'
p849
s(g22
S'2006'
tp850
S'1'
s(g281
S'2003'
tp851
S'26'
p852
s(g442
S'2011'
tp853
S'22'
p854
s(g32
S'2010'
tp855
S'63'
p856
s(g38
S'2007'
tp857
S'120'
p858
s(g180
S'2007'
tp859
S'349'
p860
s(g47
S'2006'
tp861
S'54'
p862
s(g50
S'2006'
tp863
S'58'
p864
s(S'7'
S'2003'
tp865
S'34'
p866
s(g223
S'2008'
tp867
S'48'
p868
s(g459
S'2010'
tp869
S'89'
p870
s(S'22'
S'2013'
tp871
S'7'
s(g63
S'2011'
tp872
S'11'
p873
s(g374
S'2008'
tp874
S'29'
p875
s(g194
S'2006'
tp876
S'53'
p877
s(g69
S'2005'
tp878
S'203'
p879
s(g478
S'2008'
tp880
S'142'
p881
s(g275
S'2008'
tp882
S'20'
p883
s(g531
S'2012'
tp884
S'12'
p885
s(S'52'
p886
S'2011'
tp887
S'46'
p888
s(g454
S'2009'
tp889
S'38'
p890
s(S'113'
S'2013'
tp891
S'57'
p892
s(g82
S'2010'
tp893
S'24'
p894
s(g540
S'2008'
tp895
S'10'
p896
s(g85
S'2008'
tp897
S'18'
p898
s(g2
S'2005'
tp899
S'138'
p900
s(g58
S'2008'
tp901
S'87'
p902
s(g93
S'2004'
tp903
S'79'
p904
s(g16
S'2010'
tp905
S'20'
p906
s(S'25'
S'2013'
tp907
S'31'
p908
s(g820
S'2011'
tp909
S'58'
p910
s(g410
S'2006'
tp911
S'72'
p912
s(S'106'
S'2013'
tp913
S'22'
p914
s(g431
S'2011'
tp915
S'0'
s(g107
S'2007'
tp916
S'280'
p917
s(g587
S'2011'
tp918
S'29'
p919
s(g422
S'2006'
tp920
S'29'
p921
s(g771
S'2009'
tp922
S'26'
p923
s(g113
S'2010'
tp924
S'33'
p925
s(g44
S'2003'
tp926
S'125'
p927
s(g310
S'2011'
tp928
S'19'
p929
s(g612
S'2011'
tp930
S'25'
p931
s(g124
S'2006'
tp932
S'46'
p933
s(g127
S'2006'
tp934
S'208'
p935
s(g262
S'2011'
tp936
S'23'
p937
s(g130
S'2011'
tp938
S'107'
p939
s(S'9'
S'2012'
tp940
S'26'
p941
s(g136
S'2007'
tp942
S'46'
p943
s(g612
S'2010'
tp944
S'25'
p945
s(S'94'
S'2013'
tp946
S'18'
p947
s(g144
S'2007'
tp948
S'197'
p949
s(g147
S'2004'
tp950
S'59'
p951
s(g150
S'2004'
tp952
S'71'
p953
s(g748
S'2003'
tp954
S'49'
p955
s(g284
S'2010'
tp956
S'79'
p957
s(S'9'
S'2007'
tp958
S'69'
p959
s(S'34'
S'2013'
tp960
S'44'
p961
s(g85
S'2012'
tp962
S'23'
p963
s(g164
S'2005'
tp964
S'160'
p965
s(g366
S'2005'
tp966
S'49'
p967
s(g172
S'2004'
tp968
S'96'
p969
s(S'60'
S'2013'
tp970
S'22'
p971
s(S'70'
S'2013'
tp972
S'60'
p973
s(g104
S'2003'
tp974
S'41'
p975
s(g186
S'2007'
tp976
S'199'
p977
s(g310
S'2012'
tp978
S'25'
p979
s(g191
S'2007'
tp980
S'157'
p981
s(g194
S'2005'
tp982
S'31'
p983
s(g220
S'2008'
tp984
S'43'
p985
s(g433
S'2003'
tp986
S'64'
p987
s(S'6'
S'2013'
tp988
S'34'
p989
s(g207
S'2004'
tp990
S'47'
p991
s(g210
S'2006'
tp992
S'145'
p993
s(g313
S'2008'
tp994
S'24'
p995
s(g802
S'2003'
tp996
S'48'
p997
s(S'6'
S'2005'
tp998
S'69'
p999
s(g217
S'2004'
tp1000
S'83'
p1001
s(S'23'
S'2013'
tp1002
S'33'
p1003
s(g809
S'2003'
tp1004
S'81'
p1005
s(g223
S'2012'
tp1006
S'52'
p1007
s(g545
S'2003'
tp1008
S'68'
p1009
s(g784
S'2009'
tp1010
S'102'
p1011
s(g55
S'2011'
tp1012
S'45'
p1013
s(g748
S'2004'
tp1014
S'62'
p1015
s(g229
S'2005'
tp1016
S'140'
p1017
s(g202
S'2009'
tp1018
S'22'
p1019
s(g161
S'2010'
tp1020
S'23'
p1021
s(g428
S'2009'
tp1022
S'64'
p1023
s(g552
S'2005'
tp1024
S'75'
p1025
s(g183
S'2009'
tp1026
S'65'
p1027
s(g235
S'2009'
tp1028
S'11'
p1029
s(g577
S'2003'
tp1030
S'106'
p1031
s(g259
S'2008'
tp1032
S'43'
p1033
s(g79
S'2011'
tp1034
S'56'
p1035
s(g886
S'2008'
tp1036
S'97'
p1037
s(g110
S'2012'
tp1038
S'19'
p1039
s(S'122'
S'2013'
tp1040
S'29'
p1041
s(g269
S'2005'
tp1042
S'40'
p1043
s(g272
S'2007'
tp1044
S'58'
p1045
s(S'61'
S'2013'
tp1046
S'24'
p1047
s(g499
S'2012'
tp1048
S'52'
p1049
s(g789
S'2007'
tp1050
S'59'
p1051
s(g281
S'2006'
tp1052
S'24'
p1053
s(g517
S'2003'
tp1054
S'29'
p1055
s(S'108'
p1056
S'2010'
tp1057
S'9'
s(g207
S'2003'
tp1058
S'60'
p1059
s(g289
S'2004'
tp1060
S'90'
p1061
s(g232
S'2008'
tp1062
S'34'
p1063
s(g802
S'2004'
tp1064
S'55'
p1065
s(S'1'
S'2006'
tp1066
S'83'
p1067
s(g104
S'2007'
tp1068
S'49'
p1069
s(S'41'
S'2013'
tp1070
S'39'
p1071
s(g809
S'2004'
tp1072
S'95'
p1073
s(g299
S'2007'
tp1074
S'121'
p1075
s(g119
S'2003'
tp1076
S'59'
p1077
s(g226
S'2005'
tp1078
S'78'
p1079
s(g1056
S'2009'
tp1080
S'13'
p1081
s(g307
S'2004'
tp1082
S'103'
p1083
s(S'112'
S'2013'
tp1084
S'15'
p1085
s(S'43'
S'2013'
tp1086
S'36'
p1087
s(g827
S'2006'
tp1088
S'92'
p1089
s(g771
S'2012'
tp1090
S'16'
p1091
s(g248
S'2005'
tp1092
S'21'
p1093
s(g328
S'2007'
tp1094
S'48'
p1095
s(S'108'
S'2013'
tp1096
S'13'
p1097
s(S'63'
S'2013'
tp1098
S'31'
p1099
s(g8
S'2006'
tp1100
S'62'
p1101
s(g321
S'2010'
tp1102
S'27'
p1103
s(S'46'
S'2013'
tp1104
S'42'
p1105
s(g335
S'2003'
tp1106
S'96'
p1107
s(g338
S'2008'
tp1108
S'53'
p1109
s(g242
S'2006'
tp1110
S'72'
p1111
s(g24
S'2010'
tp1112
S'11'
p1113
s(g32
S'2012'
tp1114
S'47'
p1115
s(g82
S'2009'
tp1116
S'17'
p1117
s(S'20'
S'2013'
tp1118
S'25'
p1119
s(g44
S'2004'
tp1120
S'152'
p1121
s(g47
S'2004'
tp1122
S'55'
p1123
s(g50
S'2004'
tp1124
S'63'
p1125
s(S'7'
S'2005'
tp1126
S'39'
p1127
s(g428
S'2008'
tp1128
S'51'
p1129
s(g55
S'2009'
tp1130
S'37'
p1131
s(g58
S'2011'
tp1132
S'66'
p1133
s(g61
S'2011'
tp1134
S'4'
s(g156
S'2007'
tp1135
S'46'
p1136
s(g61
S'2009'
tp1137
S'6'
s(g69
S'2007'
tp1138
S'244'
p1139
s(g29
S'2006'
tp1140
S'112'
p1141
s(g382
S'2010'
tp1142
S'28'
p1143
s(g16
S'2008'
tp1144
S'17'
p1145
s(g531
S'2008'
tp1146
S'12'
p1147
s(g79
S'2008'
tp1148
S'42'
p1149
s(g153
S'2009'
tp1150
S'33'
p1151
s(g156
S'2005'
tp1152
S'28'
p1153
s(g400
S'2006'
tp1154
S'232'
p1155
s(g93
S'2006'
tp1156
S'94'
p1157
s(S'5'
S'2011'
tp1158
S'13'
p1159
s(g98
S'2011'
tp1160
S'39'
p1161
s(g175
S'2009'
tp1162
S'19'
p1163
s(g104
S'2004'
tp1164
S'53'
p1165
s(g24
S'2008'
tp1166
S'7'
s(g107
S'2005'
tp1167
S'222'
p1168
s(g116
S'2009'
tp1169
S'18'
p1170
s(S'5'
S'2013'
tp1171
S'20'
p1172
s(g55
S'2010'
tp1173
S'67'
p1174
s(g124
S'2004'
tp1175
S'41'
p1176
s(g41
S'2011'
tp1177
S'22'
p1178
s(g445
S'2007'
tp1179
S'72'
p1180
s(g133
S'2008'
tp1181
S'30'
p1182
s(g136
S'2005'
tp1183
S'86'
p1184
s(g139
S'2004'
tp1185
S'54'
p1186
s(g377
S'2003'
tp1187
S'37'
p1188
s(g32
S'2008'
tp1189
S'41'
p1190
s(g459
S'2009'
tp1191
S'97'
p1192
s(g150
S'2006'
tp1193
S'62'
p1194
s(g133
S'2010'
tp1195
S'29'
p1196
s(g473
S'2011'
tp1197
S'69'
p1198
s(g235
S'2011'
tp1199
S'15'
p1200
s(S'9'
S'2005'
tp1201
S'70'
p1202
s(g164
S'2007'
tp1203
S'171'
p1204
s(g650
S'2012'
tp1205
S'12'
p1206
s(S'115'
S'2013'
tp1207
S'29'
p1208
s(g482
S'2006'
tp1209
S'74'
p1210
s(g172
S'2006'
tp1211
S'139'
p1212
s(g113
S'2009'
tp1213
S'29'
p1214
s(g492
S'2009'
tp1215
S'35'
p1216
s(g262
S'2009'
tp1217
S'37'
p1218
s(g183
S'2010'
tp1219
S'78'
p1220
s(g186
S'2005'
tp1221
S'197'
p1222
s(g194
S'2007'
tp1223
S'43'
p1224
s(g504
S'2004'
tp1225
S'85'
p1226
s(g509
S'2006'
tp1227
S'177'
p1228
s(g512
S'2012'
tp1229
S'35'
p1230
s(g499
S'2011'
tp1231
S'51'
p1232
s(g517
S'2006'
tp1233
S'45'
p1234
s(g207
S'2006'
tp1235
S'50'
p1236
s(S'71'
S'2013'
tp1237
S'35'
p1238
s(g442
S'2008'
tp1239
S'36'
p1240
s(g552
S'2003'
tp1241
S'63'
p1242
s(g487
S'2008'
tp1243
S'24'
p1244
s(S'6'
S'2003'
tp1245
S'84'
p1246
s(S'7'
S'2009'
tp1247
S'32'
p1248
s(g217
S'2006'
tp1249
S'103'
p1250
s(g284
S'2011'
tp1251
S'57'
p1252
s(g413
S'2012'
tp1253
S'20'
p1254
s(g454
S'2012'
tp1255
S'20'
p1256
s(g223
S'2010'
tp1257
S'68'
p1258
s(g545
S'2005'
tp1259
S'119'
p1260
s(S'5'
S'2007'
tp1261
S'62'
p1262
s(g1056
S'2011'
tp1263
S'13'
p1264
s(g229
S'2007'
tp1265
S'145'
p1266
s(S'62'
S'2013'
tp1267
S'21'
p1268
s(S'5'
S'2009'
tp1269
S'19'
p1270
s(g242
S'2005'
tp1271
S'63'
p1272
s(g431
S'2013'
tp1273
S'34'
p1274
s(g245
S'2010'
tp1275
S'26'
p1276
s(g827
S'2003'
tp1277
S'44'
p1278
s(g19
S'2009'
tp1279
S'47'
p1280
s(S'13'
S'2013'
tp1281
S'31'
p1282
s(g245
S'2009'
tp1283
S'12'
p1284
s(g13
S'2007'
tp1285
S'31'
p1286
s(g577
S'2005'
tp1287
S'40'
p1288
s(S'101'
S'2013'
tp1289
S'40'
p1290
s(g110
S'2010'
tp1291
S'21'
p1292
s(g22
S'2003'
tp1293
S'4'
s(g504
S'2003'
tp1294
S'65'
p1295
s(g175
S'2011'
tp1296
S'16'
p1297
s(g275
S'2011'
tp1298
S'15'
p1299
s(g278
S'2004'
tp1300
S'78'
p1301
s(g281
S'2004'
tp1302
S'33'
p1303
s(g442
S'2012'
tp1304
S'29'
p1305
s(g289
S'2006'
tp1306
S'75'
p1307
s(g389
S'2009'
tp1308
S'61'
p1309
s(g47
S'2003'
tp1310
S'52'
p1311
s(S'1'
S'2004'
tp1312
S'84'
p1313
s(g202
S'2012'
tp1314
S'14'
p1315
s(S'100'
S'2013'
tp1316
S'20'
p1317
s(g296
S'2007'
tp1318
S'117'
p1319
s(g299
S'2005'
tp1320
S'85'
p1321
s(S'30'
S'2013'
tp1322
S'30'
p1323
s(g307
S'2006'
tp1324
S'117'
p1325
s(g577
S'2004'
tp1326
S'57'
p1327
s(g318
S'2007'
tp1328
S'52'
p1329
s(g321
S'2008'
tp1330
S'35'
p1331
s(g771
S'2010'
tp1332
S'18'
p1333
s(g328
S'2005'
tp1334
S'51'
p1335
s(g2
S'2006'
tp1336
S'170'
p1337
s(g8
S'2004'
tp1338
S'74'
p1339
s(g133
S'2012'
tp1340
S'30'
p1341
s(g335
S'2005'
tp1342
S'77'
p1343
s(g153
S'2010'
tp1344
S'49'
p1345
s(g407
S'2010'
tp1346
S'39'
p1347
s(g24
S'2012'
tp1348
S'13'
p1349
s(g410
S'2005'
tp1350
S'87'
p1351
s(S'1'
S'2010'
tp1352
S'24'
p1353
s(g587
S'2008'
tp1354
S'24'
p1355
s(g650
S'2009'
tp1356
S'26'
p1357
s(S'110'
S'2013'
tp1358
S'28'
p1359
s(g41
S'2008'
tp1360
S'19'
p1361
s(g422
S'2005'
tp1362
S'37'
p1363
s(g35
S'2004'
tp1364
S'102'
p1365
s(g44
S'2006'
tp1366
S'194'
p1367
s(S'7'
S'2007'
tp1368
S'54'
p1369
s(g90
S'2007'
tp1370
S'105'
p1371
s(g180
S'2005'
tp1372
S'299'
p1373
s(g127
S'2003'
tp1374
S'136'
p1375
s(g262
S'2012'
tp1376
S'24'
p1377
s(S'6'
S'2008'
tp1378
S'27'
p1379
s(S'9'
S'2011'
tp1380
S'21'
p1381
s(S'84'
S'2013'
tp1382
S'27'
p1383
s(g374
S'2011'
tp1384
S'27'
p1385
s(g419
S'2004'
tp1386
S'122'
p1387
s(g377
S'2004'
tp1388
S'43'
p1389
s(g29
S'2004'
tp1390
S'83'
p1391
s(g382
S'2012'
tp1392
S'25'
p1393
s(g101
S'2009'
tp1394
S'32'
p1395
s(g784
S'2010'
tp1396
S'109'
p1397
s(g470
S'2003'
tp1398
S'112'
p1399
s(g153
S'2012'
tp1400
S'39'
p1401
s(S'5'
S'2005'
tp1402
S'50'
p1403
s(g85
S'2011'
tp1404
S'19'
p1405
s(g400
S'2004'
tp1406
S'106'
p1407
s(g531
S'2009'
tp1408
S'9'
s(g202
S'2011'
tp1409
S'18'
p1410
s(g428
S'2011'
tp1411
S'41'
p1412
s(S'52'
S'2013'
tp1413
S'52'
p1414
s(g413
S'2009'
tp1415
S'17'
p1416
s(g104
S'2006'
tp1417
S'57'
p1418
s(g107
S'2003'
tp1419
S'162'
p1420
s(g425
S'2005'
tp1421
S'66'
p1422
s(S'67'
S'2013'
tp1423
S'41'
p1424
s(g433
S'2006'
tp1425
S'86'
p1426
s(S'6'
S'2010'
tp1427
S'19'
p1428
s(g76
S'2009'
tp1429
S'13'
p1430
s(g445
S'2005'
tp1431
S'71'
p1432
s(g210
S'2003'
tp1433
S'161'
p1434
s(g531
S'2010'
tp1435
S'14'
p1436
s(S'1'
S'2008'
tp1437
S'16'
p1438
s(g139
S'2006'
tp1439
S'79'
p1440
s(g130
S'2008'
tp1441
S'121'
p1442
s(g454
S'2010'
tp1443
S'37'
p1444
s(g492
S'2010'
tp1445
S'34'
p1446
s(g1056
S'2012'
tp1447
S'29'
p1448
s(g363
S'2008'
tp1449
S'21'
p1450
s(g748
S'2007'
tp1451
S'105'
p1452
s(S'77'
S'2013'
tp1453
S'55'
p1454
s(g512
S'2008'
tp1455
S'25'
p1456
s(g167
S'2008'
tp1457
S'35'
p1458
s(g650
S'2010'
tp1459
S'23'
p1460
s(g459
S'2012'
tp1461
S'60'
p1462
s(g522
S'2010'
tp1463
S'27'
p1464
s(g482
S'2004'
tp1465
S'60'
p1466
s(g487
S'2010'
tp1467
S'18'
p1468
s(g116
S'2012'
tp1469
S'15'
p1470
s(g19
S'2008'
tp1471
S'49'
p1472
s(g256
S'2007'
tp1473
S'121'
p1474
s(g167
S'2011'
tp1475
S'18'
p1476
s(g183
S'2012'
tp1477
S'94'
p1478
s(g186
S'2003'
tp1479
S'132'
p1480
s(g197
S'2012'
tp1481
S'17'
p1482
s(g191
S'2003'
tp1483
S'177'
p1484
s(g407
S'2012'
tp1485
S'41'
p1486
s(g504
S'2006'
tp1487
S'70'
p1488
s(g509
S'2004'
tp1489
S'124'
p1490
s(g512
S'2010'
tp1491
S'32'
p1492
s(g789
S'2004'
tp1493
S'51'
p1494
s(g517
S'2004'
tp1495
S'48'
p1496
s(g617
S'2012'
tp1497
S'28'
p1498
s(g522
S'2008'
tp1499
S'31'
p1500
s(g338
S'2011'
tp1501
S'41'
p1502
s(S'7'
S'2012'
tp1503
S'22'
p1504
s(g289
S'2003'
tp1505
S'61'
p1506
s(g802
S'2007'
tp1507
S'75'
p1508
s(S'1'
S'2003'
tp1509
S'51'
p1510
s(g63
S'2012'
tp1511
S'20'
p1512
s(g63
S'2008'
tp1513
S'13'
p1514
s(g540
S'2011'
tp1515
S'8'
s(g413
S'2010'
tp1516
S'9'
s(g809
S'2007'
tp1517
S'118'
p1518
s(g545
S'2007'
tp1519
S'127'
p1520
s(g259
S'2012'
tp1521
S'34'
p1522
s(g226
S'2006'
tp1523
S'74'
p1524
s(g419
S'2006'
tp1525
S'187'
p1526
s(g232
S'2010'
tp1527
S'36'
p1528
s(g820
S'2009'
tp1529
S'65'
p1530
s(g307
S'2003'
tp1531
S'114'
p1532
s(g242
S'2007'
tp1533
S'55'
p1534
s(g245
S'2012'
tp1535
S'24'
p1536
s(g827
S'2005'
tp1537
S'74'
p1538
s(g313
S'2012'
tp1539
S'25'
p1540
s(g425
S'2006'
tp1541
S'71'
p1542
s(S'103'
S'2013'
tp1543
S'61'
p1544
s(g5
S'2010'
tp1545
S'36'
p1546
s(g382
S'2009'
tp1547
S'31'
p1548
s(g13
S'2005'
tp1549
S'29'
p1550
s(g577
S'2007'
tp1551
S'47'
p1552
s(g278
S'2003'
tp1553
S'57'
p1554
s(g19
S'2010'
tp1555
S'26'
p1556
s(g22
S'2005'
tp1557
S'3'
s(g272
S'2003'
tp1558
S'52'
p1559
s(g789
S'2003'
tp1560
S'25'
p1561
s(g442
S'2010'
tp1562
S'39'
p1563
s(g38
S'2004'
tp1564
S'85'
p1565
s(g119
S'2004'
tp1566
S'58'
p1567
s(g5
S'2008'
tp1568
S'25'
p1569
s(g50
S'2007'
tp1570
S'85'
p1571
s(g473
S'2009'
tp1572
S'73'
p1573
s(g296
S'2005'
tp1574
S'95'
p1575
s(g1056
S'2008'
tp1576
S'26'
p1577
s(g299
S'2003'
tp1578
S'81'
p1579
s(g374
S'2009'
tp1580
S'23'
p1581
s(g470
S'2004'
tp1582
S'152'
p1583
s(g612
S'2009'
tp1584
S'31'
p1585
s(g69
S'2004'
tp1586
S'176'
p1587
s(g275
S'2009'
tp1588
S'24'
p1589
s(g617
S'2008'
tp1590
S'33'
p1591
s(g318
S'2005'
tp1592
S'81'
p1593
s(g552
S'2007'
tp1594
S'68'
p1595
s(S'76'
S'2013'
tp1596
S'15'
p1597
s(g540
S'2009'
tp1598
S'11'
p1599
s(S'17'
S'2013'
tp1600
S'24'
p1601
s(g2
S'2004'
tp1602
S'122'
p1603
s(g58
S'2009'
tp1604
S'82'
p1605
s(g93
S'2003'
tp1606
S'88'
p1607
s(g522
S'2012'
tp1608
S'33'
p1609
s(g335
S'2007'
tp1610
S'88'
p1611
s(g98
S'2012'
tp1612
S'37'
p1613
s(g820
S'2010'
tp1614
S'41'
p1615
s(g344
S'2008'
tp1616
S'22'
p1617
s(g410
S'2007'
tp1618
S'65'
p1619
s(S'1'
S'2012'
tp1620
S'25'
p1621
s(g101
S'2010'
tp1622
S'41'
p1623
s(g431
S'2010'
tp1624
S'0'
s(g344
S'2011'
tp1625
S'28'
p1626
s(g107
S'2006'
tp1627
S'243'
p1628
s(g422
S'2007'
tp1629
S'21'
p1630
s(g35
S'2006'
tp1631
S'97'
p1632
s(g478
S'2011'
tp1633
S'109'
p1634
s(S'72'
S'2013'
tp1635
S'29'
p1636
s(g499
S'2009'
tp1637
S'46'
p1638
s(g119
S'2007'
tp1639
S'67'
p1640
s(g473
S'2008'
tp1641
S'62'
p1642
s(g90
S'2005'
tp1643
S'67'
p1644
s(g124
S'2007'
tp1645
S'47'
p1646
s(g127
S'2005'
tp1647
S'176'
p1648
s(g262
S'2010'
tp1649
S'44'
p1650
s(g771
S'2011'
tp1651
S'18'
p1652
s(g130
S'2012'
tp1653
S'96'
p1654
s(S'9'
S'2013'
tp1655
S'25'
p1656
s(g139
S'2003'
tp1657
S'57'
p1658
s(g69
S'2003'
tp1659
S'160'
p1660
s(g478
S'2009'
tp1661
S'128'
p1662
s(g377
S'2006'
tp1663
S'58'
p1664
s(g175
S'2012'
tp1665
S'17'
p1666
s(g144
S'2004'
tp1667
S'122'
p1668
s(g886
S'2012'
tp1669
S'51'
p1670
s(g147
S'2007'
tp1671
S'67'
p1672
s(g150
S'2003'
tp1673
S'41'
p1674
s(g407
S'2009'
tp1675
S'63'
p1676
s(S'5'
S'2003'
tp1677
S'49'
p1678
s(S'9'
S'2006'
tp1679
S'83'
p1680
s(S'68'
S'2013'
tp1681
S'18'
p1682
s(S'75'
S'2013'
tp1683
S'91'
p1684
s(g167
S'2012'
tp1685
S'49'
p1686
s(S'19'
S'2013'
tp1687
S'21'
p1688
s(g482
S'2003'
tp1689
S'54'
p1690
s(g172
S'2003'
tp1691
S'70'
p1692
s(g116
S'2010'
tp1693
S'12'
p1694
s(g587
S'2012'
tp1695
S'22'
p1696
s(g191
S'2004'
tp1697
S'206'
p1698
s(g425
S'2007'
tp1699
S'62'
p1700
s(g310
S'2009'
tp1701
S'19'
p1702
s(g509
S'2003'
tp1703
S'117'
p1704
s(g220
S'2009'
tp1705
S'53'
p1706
s(g433
S'2004'
tp1707
S'76'
p1708
s(S'6'
S'2012'
tp1709
S'30'
p1710
s(g98
S'2008'
tp1711
S'27'
p1712
s(g784
S'2011'
tp1713
S'92'
p1714
s(g210
S'2005'
tp1715
S'120'
p1716
s(g313
S'2009'
tp1717
S'23'
p1718
s(S'6'
S'2006'
tp1719
S'83'
p1720
s(g217
S'2003'
tp1721
S'79'
p1722
s(g492
S'2012'
tp1723
S'36'
p1724
s(g153
S'2011'
tp1725
S'48'
p1726
s(S'79'
S'2013'
tp1727
S'81'
p1728
s(g470
S'2006'
tp1729
S'169'
p1730
s(g784
S'2008'
tp1731
S'84'
p1732
s(g748
S'2005'
tp1733
S'78'
p1734
s(g202
S'2008'
tp1735
S'17'
p1736
s(S'9'
S'2009'
tp1737
S'29'
p1738
s(g90
S'2004'
tp1739
S'91'
p1740
s(g183
S'2008'
tp1741
S'50'
p1742
s(g487
S'2012'
tp1743
S'30'
p1744
s(g256
S'2005'
tp1745
S'98'
p1746
s(g79
S'2010'
tp1747
S'55'
p1748
s(g886
S'2009'
tp1749
S'89'
p1750
s(g197
S'2010'
tp1751
S'13'
p1752
s(g269
S'2004'
tp1753
S'44'
p1754
s(g272
S'2004'
tp1755
S'54'
p1756
s(g275
S'2012'
tp1757
S'16'
p1758
s(g789
S'2006'
tp1759
S'55'
p1760
s(g617
S'2010'
tp1761
S'26'
p1762
s(S'44'
S'2013'
tp1763
S'65'
p1764
s(S'7'
S'2010'
tp1765
S'28'
p1766
s(g289
S'2005'
tp1767
S'62'
p1768
s(g802
S'2005'
tp1769
S'55'
p1770
s(S'123'
p1771
S'2013'
tp1772
S'6'
s(g809
S'2005'
tp1773
S'80'
p1774
s(g299
S'2006'
tp1775
S'117'
p1776
s(g259
S'2010'
tp1777
S'67'
p1778
s(g226
S'2004'
tp1779
S'66'
p1780
s(g363
S'2010'
tp1781
S'16'
p1782
s(g259
S'2011'
tp1783
S'63'
p1784
s(g307
S'2005'
tp1785
S'96'
p1786
s(g886
S'2010'
tp1787
S'61'
p1788
s(S'45'
S'2013'
tp1789
S'20'
p1790
s(g454
S'2008'
tp1791
S'27'
p1792
s(g827
S'2007'
tp1793
S'81'
p1794
s(S'88'
S'2013'
tp1795
S'18'
p1796
s(g248
S'2006'
tp1797
S'28'
p1798
s(g66
S'2011'
tp1799
S'56'
p1800
s(g328
S'2006'
tp1801
S'57'
p1802
s.