(dp1
S''
S''
sS'081059500'
p2
S'104'
p3
sS'047022100'
p4
S'77'
p5
sS'005042600'
p6
S'47'
p7
sS'061005900'
p8
S'6'
sS'047090800'
p9
S'73'
p10
sS'081004401'
p11
S'106'
p12
sS'081010300'
p13
S'114'
p14
sS'005022300'
p15
S'44'
p16
sS'005042300'
p17
S'52'
p18
sS'047114600'
p19
S'75'
p20
sS'081062000'
p21
S'105'
p22
sS'081053100'
p23
S'104'
p24
sS'005036000'
p25
S'49'
p26
sS'005039400'
p27
S'47'
p28
sS'047041300'
p29
S'83'
p30
sS'085020804'
p31
S'123'
p32
sS'085020803'
p33
S'123'
p34
sS'085020801'
p35
S'123'
p36
sS'047026000'
p37
S'62'
p38
sS'081027400'
p39
S'113'
p40
sS'081144100'
p41
S'111'
p42
sS'005004800'
p43
S'43'
p44
sS'047032300'
p45
S'71'
p46
sS'047012000'
p47
S'68'
p48
sS'047059100'
p49
S'94'
p50
sS'005009800'
p51
S'43'
p52
sS'081033401'
p53
S'113'
p54
sS'005043000'
p55
S'47'
p56
sS'085032300'
p57
S'120'
p58
sS'085015400'
p59
S'122'
p60
sS'081026700'
p61
S'110'
p62
sS'047065200'
p63
S'63'
p64
sS'005023301'
p65
S'46'
p66
sS'005023302'
p67
S'46'
p68
sS'005024400'
p69
S'49'
p70
sS'081016800'
p71
S'106'
p72
sS'081088400'
p73
S'106'
p74
sS'047009400'
p75
S'66'
p76
sS'047084000'
p77
S'67'
p78
sS'081054000'
p79
S'105'
p80
sS'047058400'
p81
S'61'
p82
sS'085008900'
p83
S''
sS'061021000'
p84
S'25'
p85
sS'081051500'
p86
S'104'
p87
sS'061001800'
p88
S'7'
sS'047033900'
p89
S'77'
p90
sS'005002400'
p91
S'43'
p92
sS'047027600'
p93
S'62'
p94
sS'047053800'
p95
S'70'
p96
sS'081105900'
p97
S'109'
p98
sS'081147100'
p99
S'111'
p100
sS'047029900'
p101
S'81'
p102
sS'081009700'
p103
S'114'
p104
sS'047044500'
p105
S'83'
p106
sS'061004500'
p107
S'5'
sS'047042800'
p108
S'62'
p109
sS'047031500'
p110
S'77'
p111
sS'047039200'
p112
S'61'
p113
sS'061012700'
p114
S'18'
p115
sS'047000200'
p116
S'72'
p117
sS'047019600'
p118
S'68'
p119
sS'081067700'
p120
S'104'
p121
sS'081002000'
p122
S'102'
p123
sS'005014702'
p124
S'42'
p125
sS'005014701'
p126
S'42'
p127
sS'047001300'
p128
S'84'
p129
sS'005007200'
p130
S'43'
p131
sS'085014700'
p132
S'120'
p133
sS'005025200'
p134
S'49'
p135
sS'081111300'
p136
S'111'
p137
sS'061021703'
p138
S'26'
p139
sS'061022200'
p140
S'28'
p141
sS'085004000'
p142
S'120'
p143
sS'081065702'
p144
S'104'
p145
sS'081065703'
p146
S'104'
p147
sS'047068800'
p148
S'63'
p149
sS'005040702'
p150
S'52'
p151
sS'005040701'
p152
S'52'
p153
sS'085019800'
p154
S'123'
p155
sS'047116600'
p156
S'75'
p157
sS'081049200'
p158
S'107'
p159
sS'047053700'
p160
S'90'
p161
sS'047055400'
p162
S'61'
p163
sS'081057900'
p164
S'104'
p165
sS'061000100'
p166
S'1'
sS'081146300'
p167
S'111'
p168
sS'081112300'
p169
S'111'
p170
sS'081000400'
p171
S'102'
p172
sS'047030100'
p173
S'81'
p174
sS'005050400'
p175
S''
sS'081044602'
p176
S'107'
p177
sS'047019900'
p178
S'88'
p179
sS'047110600'
p180
S'75'
p181
sS'081023800'
p182
S'103'
p183
sS'081081400'
p184
S'106'
p185
sS'085000300'
p186
S'120'
p187
sS'047081400'
p188
S'67'
p189
sS'061003700'
p190
S'1'
sS'047016800'
p191
S'62'
p192
sS'081073900'
p193
S'112'
p194
sS'081027100'
p195
S'110'
p196
sS'081116300'
p197
S'109'
p198
sS'061008601'
p199
S'17'
p200
sS'061008602'
p201
S'17'
p202
sS'061008603'
p203
S'17'
p204
sS'061009000'
p205
S'17'
p206
sS'081005700'
p207
S'114'
p208
sS'081021400'
p209
S'103'
p210
sS'081046500'
p211
S'110'
p212
sS'047051700'
p213
S'94'
p214
sS'047046000'
p215
S'70'
p216
sS'047082200'
p217
S'67'
p218
sS'081138501'
p219
S'111'
p220
sS'081138502'
p221
S'111'
p222
sS'081029700'
p223
S'114'
p224
sS'047034200'
p225
S'60'
p226
sS'081013800'
p227
S'102'
p228
sS'061007200'
p229
S'17'
p230
sS'081060600'
p231
S'105'
p232
sS'005016600'
p233
S'45'
p234
sS'047020200'
p235
S'68'
p236
sS'047117800'
p237
S'75'
p238
sS'081061800'
p239
S'105'
p240
sS'047021000'
p241
S'68'
p242
sS'005033800'
p243
S'49'
p244
sS'005005300'
p245
S'46'
p246
sS'061027300'
p247
S'34'
p248
sS'047003000'
p249
S'68'
p250
sS'061005700'
p251
S'9'
sS'047059300'
p252
S'94'
p253
sS'005006400'
p254
S'43'
p255
sS'081038301'
p256
S'110'
p257
sS'081038302'
p258
S'112'
p259
sS'085006400'
p260
S'122'
p261
sS'061002000'
p262
S'9'
sS'047025100'
p263
S'79'
p264
sS'081053800'
p265
S'105'
p266
sS'061020701'
p267
S'26'
p268
sS'005032600'
p269
S'49'
p270
sS'081028300'
p271
S'115'
p272
sS'081044302'
p273
S'110'
p274
sS'005036700'
p275
S'48'
p276
sS'081028900'
p277
S'115'
p278
sS'061014700'
p279
S'20'
p280
sS'081005900'
p281
S'114'
p282
sS'047060000'
p283
S'61'
p284
sS'081025500'
p285
S'108'
p286
sS'061006600'
p287
S'13'
p288
sS'047050900'
p289
S'90'
p290
sS'005026100'
p291
S'52'
p292
sS'081015400'
p293
S'102'
p294
sS'047033000'
p295
S'60'
p296
sS'005024600'
p297
S'49'
p298
sS'047002300'
p299
S'84'
p300
sS'047047200'
p301
S'66'
p302
sS'047083000'
p303
S'67'
p304
sS'081139900'
p305
S'111'
p306
sS'047012901'
p307
S'78'
p308
sS'047012902'
p309
S'88'
p310
sS'047038900'
p311
S'83'
p312
sS'047079802'
p313
S'71'
p314
sS'047079801'
p315
S'71'
p316
sS'081059600'
p317
S'105'
p318
sS'047022200'
p319
S'66'
p320
sS'005039500'
p321
S'48'
p322
sS'081012301'
p323
S'114'
p324
sS'061020300'
p325
S'26'
p326
sS'061005800'
p327
S'13'
p328
sS'081148300'
p329
S'111'
p330
sS'061019400'
p331
S'25'
p332
sS'081004500'
p333
S'114'
p334
sS'081010200'
p335
S'106'
p336
sS'005022000'
p337
S'52'
p338
sS'047112600'
p339
S'75'
p340
sS'047057800'
p341
S'61'
p342
sS'047098200'
p343
S'69'
p344
sS'081053601'
p345
S'105'
p346
sS'081062100'
p347
S'104'
p348
sS'081101700'
p349
S'109'
p350
sS'047098800'
p351
S'69'
p352
sS'081064600'
p353
S'105'
p354
sS'081055700'
p355
S'104'
p356
sS'081007100'
p357
S'114'
p358
sS'047061200'
p359
S'61'
p360
sS'047041200'
p361
S'62'
p362
sS'047026100'
p363
S'79'
p364
sS'061024200'
p365
S'25'
p366
sS'061019500'
p367
S''
sS'047012700'
p368
S'78'
p369
sS'005003300'
p370
S'40'
p371
sS'081140902'
p372
S'111'
p373
sS'081009600'
p374
S'106'
p375
sS'005004300'
p376
S'40'
p377
sS'081035100'
p378
S'115'
p379
sS'047048400'
p380
S'66'
p381
sS'047119400'
p382
S'75'
p383
sS'047054700'
p384
S'90'
p385
sS'061013000'
p386
S'19'
p387
sS'081051700'
p388
S'104'
p389
sS'047111600'
p390
S'75'
p391
sS'005015800'
p392
S'45'
p393
sS'005038100'
p394
S'46'
p395
sS'047102800'
p396
S'69'
p397
sS'081026400'
p398
S'113'
p399
sS'081046400'
p400
S'107'
p401
sS'061000700'
p402
S'1'
sS'005023200'
p403
S'49'
p404
sS'047011600'
p405
S'66'
p406
sS'081121500'
p407
S'109'
p408
sS'047036502'
p409
S'73'
p410
sS'005024502'
p411
S'46'
p412
sS'005024501'
p413
S'46'
p414
sS'047036501'
p415
S'73'
p416
sS'047112800'
p417
S'75'
p418
sS'047018501'
p419
S'88'
p420
sS'005020400'
p421
S'45'
p422
sS'061021303'
p423
S'26'
p424
sS'081051600'
p425
S'105'
p426
sS'061000600'
p427
S'7'
sS'047096800'
p428
S'69'
p429
sS'081085700'
p430
S'109'
p431
sS'047005300'
p432
S'76'
p433
sS'047027500'
p434
S'81'
p435
sS'047070600'
p436
S'63'
p437
sS'081039900'
p438
S'110'
p439
sS'081050800'
p440
S'113'
p441
sS'081157902'
p442
S'105'
p443
sS'081157903'
p444
S'105'
p445
sS'081157901'
p446
S'105'
p447
sS'047029800'
p448
S'62'
p449
sS'047089400'
p450
S'73'
p451
sS'047064800'
p452
S'63'
p453
sS'047045000'
p454
S'66'
p455
sS'047014700'
p456
S'72'
p457
sS'047042900'
p458
S'83'
p459
sS'061012600'
p460
S'19'
p461
sS'005015700'
p462
S'43'
p463
sS'047021900'
p464
S'77'
p465
sS'047000301'
p466
S'84'
p467
sS'081011400'
p468
S'102'
p469
sS'047091200'
p470
S'73'
p471
sS'085014607'
p472
S'122'
p473
sS'085014606'
p474
S'122'
p475
sS'085014605'
p476
S'122'
p477
sS'085014604'
p478
S'122'
p479
sS'005025100'
p480
S'46'
p481
sS'085014608'
p482
S'122'
p483
sS'081074100'
p484
S'112'
p485
sS'061008700'
p486
S'10'
p487
sS'047016700'
p488
S'78'
p489
sS'081120700'
p490
S'109'
p491
sS'061022301'
p492
S'30'
p493
sS'005011700'
p494
S'41'
p495
sS'047067200'
p496
S'63'
p497
sS'047072600'
p498
S'67'
p499
sS'047028501'
p500
S'81'
p501
sS'081029400'
p502
S'113'
p503
sS'081065600'
p504
S'105'
p505
sS'061017800'
p506
S''
sS'081006900'
p507
S'114'
p508
sS'047053000'
p509
S'70'
p510
sS'047055500'
p511
S'94'
p512
sS'081060701'
p513
S'104'
p514
sS'005041400'
p515
S'47'
p516
sS'005017702'
p517
S'44'
p518
sS'085030302'
p519
S'120'
p520
sS'061008300'
p521
S'10'
p522
sS'047038200'
p523
S'60'
p524
sS'047042000'
p525
S'61'
p526
sS'047086200'
p527
S'67'
p528
sS'047030000'
p529
S'60'
p530
sS'061018900'
p531
S'24'
p532
sS'081033900'
p533
S'115'
p534
sS'047022900'
p535
S'79'
p536
sS'047037900'
p537
S'81'
p538
sS'047043500'
p539
S'83'
p540
sS'047090000'
p541
S'73'
p542
sS'005018101'
p543
S'44'
p544
sS'047024200'
p545
S'66'
p546
sS'061003601'
p547
S'5'
sS'061003602'
p548
S'9'
sS'061002602'
p549
S'9'
sS'047100400'
p550
S'69'
p551
sS'047006200'
p552
S'68'
p553
sS'061002601'
p554
S'9'
sS'047007000'
p555
S'68'
p556
sS'047093200'
p557
S'67'
p558
sS'005037000'
p559
S'47'
p560
sS'047051400'
p561
S'70'
p562
sS'081052500'
p563
S'104'
p564
sS'047068000'
p565
S'63'
p566
sS'047013600'
p567
S'68'
p568
sS'081055600'
p569
S'105'
p570
sS'047034100'
p571
S'77'
p572
sS'061011700'
p573
S'10'
p574
sS'081014300'
p575
S'114'
p576
sS'047085600'
p577
S'67'
p578
sS'081113300'
p579
S'111'
p580
sS'005019700'
p581
S'44'
p582
sS'047087000'
p583
S'67'
p584
sS'047003300'
p585
S'84'
p586
sS'005005200'
p587
S'43'
p588
sS'047076600'
p589
S'70'
p590
sS'005009000'
p591
S'45'
p592
sS'047037000'
p593
S'60'
p594
sS'005006500'
p595
S'40'
p596
sS'081056400'
p597
S'105'
p598
sS'047023500'
p599
S'79'
p600
sS'081066701'
p601
S'104'
p602
sS'047025000'
p603
S'62'
p604
sS'081053900'
p605
S'104'
p606
sS'047114400'
p607
S'75'
p608
sS'081062600'
p609
S'105'
p610
sS'061002202'
p611
S'9'
sS'047008400'
p612
S'72'
p613
sS'047067800'
p614
S'63'
p615
sS'061014601'
p616
S'19'
p617
sS'061031704'
p618
S'1'
sS'061028300'
p619
S'34'
p620
sS'061031703'
p621
S'1'
sS'081025400'
p622
S'103'
p623
sS'061006700'
p624
S'6'
sS'081126700'
p625
S'107'
p626
sS'085031901'
p627
S'120'
p628
sS'085031902'
p629
S'120'
p630
sS'047002000'
p631
S'72'
p632
sS'047033100'
p633
S'71'
p634
sS'005039600'
p635
S'47'
p636
sS'047012801'
p637
S'68'
p638
sS'047032500'
p639
S'71'
p640
sS'005028500'
p641
S'50'
p642
sS'081077300'
p643
S'102'
p644
sS'061016600'
p645
S'23'
p646
sS'047038800'
p647
S'61'
p648
sS'081044301'
p649
S'110'
p650
sS'047039400'
p651
S'61'
p652
sS'081078800'
p653
S'113'
p654
sS'061017100'
p655
S'20'
p656
sS'047017000'
p657
S'62'
p658
sS'081032000'
p659
S'105'
p660
sS'081124700'
p661
S'107'
p662
sS'005039200'
p663
S'47'
p664
sS'061017000'
p665
S'23'
p666
sS'061020000'
p667
S'28'
p668
sS'081010100'
p669
S'114'
p670
sS'047075800'
p671
S'70'
p672
sS'005022101'
p673
S'44'
p674
sS'005022102'
p675
S'44'
p676
sS'081017800'
p677
S'106'
p678
sS'047057900'
p679
S'94'
p680
sS'047018400'
p681
S'62'
p682
sS'047009200'
p683
S'66'
p684
sS'085008100'
p685
S'120'
p686
sS'081048100'
p687
S'110'
p688
sS'047060800'
p689
S''
sS'061000800'
p690
S'5'
sS'047041100'
p691
S'83'
p692
sS'047017800'
p693
S'62'
p694
sS'081040200'
p695
S'113'
p696
sS'047092200'
p697
S'73'
p698
sS'081098100'
p699
S'109'
p700
sS'061029300'
p701
S'34'
p702
sS'047026200'
p703
S'62'
p704
sS'081047100'
p705
S'110'
p706
sS'061024302'
p707
S''
sS'061024301'
p708
S'33'
p709
sS'081119100'
p710
S'109'
p711
sS'005004001'
p712
S'43'
p713
sS'081032900'
p714
S'115'
p715
sS'081009900'
p716
S'114'
p717
sS'085016901'
p718
S'120'
p719
sS'047048500'
p720
S'90'
p721
sS'047054600'
p722
S'70'
p723
sS'061013100'
p724
S'18'
p725
sS'047030900'
p726
S'77'
p727
sS'061002700'
p728
S'5'
sS'005038000'
p729
S'47'
p730
sS'081026500'
p731
S'108'
p732
sS'047017600'
p733
S'62'
p734
sS'081023000'
p735
S'107'
p736
sS'047011700'
p737
S'78'
p738
sS'047049900'
p739
S'94'
p740
sS'081045500'
p741
S'110'
p742
sS'047036400'
p743
S'60'
p744
sS'005025000'
p745
S'49'
p746
sS'081027900'
p747
S'115'
p748
sS'005020502'
p749
S'46'
p750
sS'005020501'
p751
S'46'
p752
sS'081097202'
p753
S'101'
p754
sS'081097203'
p755
S'101'
p756
sS'047085400'
p757
S'67'
p758
sS'061021200'
p759
S'32'
p760
sS'085025100'
p761
S'120'
p762
sS'047004300'
p763
S'84'
p764
sS'047095000'
p765
S'69'
p766
sS'005041900'
p767
S'52'
p768
sS'081024900'
p769
S'108'
p770
sS'005021900'
p771
S'44'
p772
sS'047005202'
p773
S'68'
p774
sS'047005201'
p775
S'68'
p776
sS'061001600'
p777
S'5'
sS'047027400'
p778
S'62'
p779
sS'047050100'
p780
S'94'
p781
sS'061025300'
p782
S'33'
p783
sS'047116800'
p784
S'75'
p785
sS'047083800'
p786
S'67'
p787
sS'061026300'
p788
S'33'
p789
sS'047029100'
p790
S'81'
p791
sS'081057700'
p792
S'104'
p793
sS'061004700'
p794
S'1'
sS'005029700'
p795
S'50'
p796
sS'081012200'
p797
S'102'
p798
sS'061012500'
p799
S'18'
p800
sS'047021800'
p801
S'66'
p802
sS'081011500'
p803
S'114'
p804
sS'081002200'
p805
S'102'
p806
sS'081020200'
p807
S'103'
p808
sS'005007000'
p809
S'43'
p810
sS'085023900'
p811
S'120'
p812
sS'047006300'
p813
S'76'
p814
sS'081116100'
p815
S'109'
p816
sS'061008000'
p817
S'17'
p818
sS'081029300'
p819
S'108'
p820
sS'047016600'
p821
S'68'
p822
sS'081036800'
p823
S'113'
p824
sS'047074600'
p825
S'63'
p826
sS'005039300'
p827
S'48'
p828
sS'047028200'
p829
S'62'
p830
sS'061018500'
p831
S'24'
p832
sS'005011800'
p833
S'45'
p834
sS'061017900'
p835
S'24'
p836
sS'005026900'
p837
S'52'
p838
sS'047028800'
p839
S'62'
p840
sS'047053100'
p841
S'90'
p842
sS'081094203'
p843
S'100'
p844
sS'081094202'
p845
S'100'
p846
sS'081094201'
p847
S'100'
p848
sS'081014202'
p849
S'102'
p850
sS'081014201'
p851
S'102'
p852
sS'047019700'
p853
S'88'
p854
sS'047152200'
p855
S'70'
p856
sS'081060800'
p857
S'105'
p858
sS'047038100'
p859
S'81'
p860
sS'081000200'
p861
S'102'
p862
sS'047042100'
p863
S'83'
p864
sS'047079000'
p865
S'70'
p866
sS'005008300'
p867
S'41'
p868
sS'047110400'
p869
S'75'
p870
sS'047043400'
p871
S'62'
p872
sS'047024300'
p873
S'79'
p874
sS'047025300'
p875
S'79'
p876
sS'005012701'
p877
S'41'
p878
sS'061014500'
p879
S'20'
p880
sS'005037100'
p881
S'48'
p882
sS'081005100'
p883
S'114'
p884
sS'047056600'
p885
S'61'
p886
sS'047051500'
p887
S'94'
p888
sS'081052400'
p889
S'113'
p890
sS'081069000'
p891
S'105'
p892
sS'081162100'
p893
S'105'
p894
sS'047062600'
p895
S'61'
p896
sS'047013700'
p897
S'78'
p898
sS'047034000'
p899
S'60'
p900
sS'085020100'
p901
S'120'
p902
sS'061011401'
p903
S'19'
p904
sS'061011402'
p905
S'19'
p906
sS'081048900'
p907
S'108'
p908
sS'081013000'
p909
S'102'
p910
sS'081043200'
p911
S'113'
p912
sS'081033402'
p913
S'113'
p914
sS'081070900'
p915
S'112'
p916
sS'081104700'
p917
S'109'
p918
sS'061018100'
p919
S'24'
p920
sS'047078600'
p921
S'70'
p922
sS'047015700'
p923
S'78'
p924
sS'005009300'
p925
S'41'
p926
sS'047037100'
p927
S'73'
p928
sS'061013800'
p929
S'19'
p930
sS'081001000'
p931
S'102'
p932
sS'081034700'
p933
S'115'
p934
sS'005022800'
p935
S'49'
p936
sS'081056700'
p937
S'104'
p938
sS'081066400'
p939
S'105'
p940
sS'047023400'
p941
S'66'
p942
sS'005038900'
p943
S'48'
p944
sS'085007000'
p945
S'122'
p946
sS'047112000'
p947
S'75'
p948
sS'081017900'
p949
S'108'
p950
sS'081062700'
p951
S'104'
p952
sS'047099800'
p953
S'69'
p954
sS'047008500'
p955
S'76'
p956
sS'005036501'
p957
S'48'
p958
sS'005036502'
p959
S'48'
p960
sS'005046000'
p961
S'47'
p962
sS'047060600'
p963
S'61'
p964
sS'061006400'
p965
S'13'
p966
sS'061014900'
p967
S'20'
p968
sS'085003900'
p969
S'120'
p970
sS'081054700'
p971
S'104'
p972
sS'047002100'
p973
S'84'
p974
sS'081117500'
p975
S'109'
p976
sS'047047400'
p977
S'66'
p978
sS'047150200'
p979
S'72'
p980
sS'081086100'
p981
S'109'
p982
sS'081157102'
p983
S'105'
p984
sS'081157101'
p985
S'105'
p986
sS'081006100'
p987
S'114'
p988
sS'005028600'
p989
S'49'
p990
sS'005003100'
p991
S'40'
p992
sS'081044000'
p993
S'103'
p994
sS'047077400'
p995
S'70'
p996
sS'081049500'
p997
S'104'
p998
sS'047039500'
p999
S'83'
p1000
sS'081032700'
p1001
S'115'
p1002
sS'005048400'
p1003
S'47'
p1004
sS'081018900'
p1005
S'108'
p1006
sS'047045800'
p1007
S'66'
p1008
sS'081059800'
p1009
S'105'
p1010
sS'061020101'
p1011
S'26'
p1012
sS'005013500'
p1013
S'42'
p1014
sS'061020102'
p1015
S'28'
p1016
sS'081113900'
p1017
S'111'
p1018
sS'085027900'
p1019
S'122'
p1020
sS'081092200'
p1021
S'100'
p1022
sS'081010000'
p1023
S'106'
p1024
sS'047011400'
p1025
S'66'
p1026
sS'081143500'
p1027
S'111'
p1028
sS'061015400'
p1029
S'19'
p1030
sS'047049800'
p1031
S'66'
p1032
sS'047073400'
p1033
S'63'
p1034
sS'047018700'
p1035
S'88'
p1036
sS'047057000'
p1037
S'61'
p1038
sS'047040500'
p1039
S'83'
p1040
sS'081011300'
p1041
S'114'
p1042
sS'061022302'
p1043
S''
sS'047121000'
p1044
S'75'
p1045
sS'047041000'
p1046
S'62'
p1047
sS'081040300'
p1048
S'110'
p1049
sS'061023900'
p1050
S'33'
p1051
sS'047026300'
p1052
S'79'
p1053
sS'047088200'
p1054
S'67'
p1055
sS'047028400'
p1056
S'62'
p1057
sS'061024000'
p1058
S'25'
p1059
sS'081050000'
p1060
S'103'
p1061
sS'081007500'
p1062
S'114'
p1063
sS'081115900'
p1064
S'109'
p1065
sS'005004100'
p1066
S'40'
p1067
sS'047063800'
p1068
S'61'
p1069
sS'081032800'
p1070
S'113'
p1071
sS'081009800'
p1072
S'106'
p1073
sS'047048600'
p1074
S'66'
p1075
sS'047119600'
p1076
S'75'
p1077
sS'005042800'
p1078
S'47'
p1079
sS'047049600'
p1080
S'66'
p1081
sS'005030100'
p1082
S'50'
p1083
sS'047030800'
p1084
S'60'
p1085
sS'085012100'
p1086
S'120'
p1087
sS'047017700'
p1088
S'78'
p1089
sS'047101400'
p1090
S'69'
p1091
sS'081058100'
p1092
S'104'
p1093
sS'081027800'
p1094
S'113'
p1095
sS'005020601'
p1096
S'45'
p1097
sS'047025800'
p1098
S'62'
p1099
sS'081097300'
p1100
S'109'
p1101
sS'061021500'
p1102
S'32'
p1103
sS'005037800'
p1104
S'47'
p1105
sS'047004400'
p1106
S'68'
p1107
sS'047035500'
p1108
S'71'
p1109
sS'047041900'
p1110
S'83'
p1111
sS'047055600'
p1112
S'61'
p1113
sS'047058900'
p1114
S''
sS'081041300'
p1115
S'110'
p1116
sS'061009700'
p1117
S'10'
p1118
sS'081079200'
p1119
S'113'
p1120
sS'005021800'
p1121
S'48'
p1122
sS'081127700'
p1123
S'107'
p1124
sS'047050000'
p1125
S'72'
p1126
sS'047053200'
p1127
S'70'
p1128
sS'005026602'
p1129
S'45'
p1130
sS'005026601'
p1131
S'45'
p1132
sS'047029000'
p1133
S'62'
p1134
sS'005032400'
p1135
S'49'
p1136
sS'047080200'
p1137
S'71'
p1138
sS'081012500'
p1139
S'114'
p1140
sS'047064600'
p1141
S'63'
p1142
sS'061012400'
p1143
S''
sS'005015100'
p1144
S'42'
p1145
sS'081019400'
p1146
S'113'
p1147
sS'047087800'
p1148
S'71'
p1149
sS'085000800'
p1150
S'120'
p1151
sS'047091000'
p1152
S'73'
p1153
sS'085012804'
p1154
S'122'
p1155
sS'047090200'
p1156
S'73'
p1157
sS'081145101'
p1158
S'111'
p1159
sS'047059401'
p1160
S'61'
p1161
sS'047059402'
p1162
S'61'
p1163
sS'005007900'
p1164
S'40'
p1165
sS'047006000'
p1166
S'68'
p1167
sS'085010500'
p1168
S'120'
p1169
sS'081037600'
p1170
S'113'
p1171
sS'081004200'
p1172
S'102'
p1173
sS'047067000'
p1174
S'63'
p1175
sS'081036700'
p1176
S'115'
p1177
sS'047028300'
p1178
S'81'
p1179
sS'081072300'
p1180
S'112'
p1181
sS'005011900'
p1182
S'41'
p1183
sS'081140300'
p1184
S'111'
p1185
sS'081047200'
p1186
S'107'
p1187
sS'047034900'
p1188
S'71'
p1189
sS'061011500'
p1190
S'14'
p1191
sS'061007700'
p1192
S'6'
sS'047013800'
p1193
S'68'
p1194
sS'081014100'
p1195
S'114'
p1196
sS'081125700'
p1197
S'107'
p1198
sS'005017500'
p1199
S'44'
p1200
sS'081046700'
p1201
S'110'
p1202
sS'047042600'
p1203
S'62'
p1204
sS'081018200'
p1205
S'113'
p1206
sS'061020800'
p1207
S'32'
p1208
sS'085000600'
p1209
S'120'
p1210
sS'081056600'
p1211
S'105'
p1212
sS'047023300'
p1213
S'79'
p1214
sS'081066501'
p1215
S'104'
p1216
sS'085006700'
p1217
S'120'
p1218
sS'005043600'
p1219
S'47'
p1220
sS'005045102'
p1221
S'47'
p1222
sS'047025200'
p1223
S'62'
p1224
sS'005032300'
p1225
S'50'
p1226
sS'005045101'
p1227
S'47'
p1228
sS'047007200'
p1229
S'72'
p1230
sS'047093400'
p1231
S'67'
p1232
sS'047056500'
p1233
S'94'
p1234
sS'081005000'
p1235
S'106'
p1236
sS'005023502'
p1237
S'46'
p1238
sS'005023501'
p1239
S'46'
p1240
sS'047051200'
p1241
S'70'
p1242
sS'047115600'
p1243
S'75'
p1244
sS'081069702'
p1245
S'112'
p1246
sS'047068600'
p1247
S'63'
p1248
sS'081069701'
p1249
S'112'
p1250
sS'005031400'
p1251
S'49'
p1252
sS'047034700'
p1253
S'77'
p1254
sS'061030700'
p1255
S'34'
p1256
sS'047047700'
p1257
S'94'
p1258
sS'081119900'
p1259
S'109'
p1260
sS'061024500'
p1261
S'33'
p1262
sS'061007900'
p1263
S'6'
sS'061010900'
p1264
S'14'
p1265
sS'081133300'
p1266
S'107'
p1267
sS'005016100'
p1268
S'42'
p1269
sS'085013400'
p1270
S'122'
p1271
sS'047087200'
p1272
S'67'
p1273
sS'047003500'
p1274
S'88'
p1275
sS'005005400'
p1276
S'43'
p1277
sS'047015400'
p1278
S'68'
p1279
sS'081009100'
p1280
S'114'
p1281
sS'005009200'
p1282
S'43'
p1283
sS'005027401'
p1284
S'45'
p1285
sS'061013900'
p1286
S'18'
p1287
sS'005022901'
p1288
S'46'
p1289
sS'005022902'
p1290
S'44'
p1291
sS'047049100'
p1292
S'90'
p1293
sS'081062400'
p1294
S'105'
p1295
sS'081055800'
p1296
S'105'
p1297
sS'081067100'
p1298
S'104'
p1299
sS'005036400'
p1300
S'47'
p1301
sS'047066600'
p1302
S'63'
p1303
sS'061028100'
p1304
S'34'
p1305
sS'081028400'
p1306
S'113'
p1307
sS'081047800'
p1308
S'107'
p1309
sS'061014802'
p1310
S'19'
p1311
sS'061014801'
p1312
S'19'
p1313
sS'047082800'
p1314
S'67'
p1315
sS'047095800'
p1316
S'69'
p1317
sS'081050700'
p1318
S'104'
p1319
sS'061024100'
p1320
S'33'
p1321
sS'081101002'
p1322
S'101'
p1323
sS'081006202'
p1324
S'106'
p1325
sS'047032700'
p1326
S'71'
p1327
sS'005028700'
p1328
S'50'
p1329
sS'047053900'
p1330
S'90'
p1331
sS'061016400'
p1332
S'23'
p1333
sS'085002700'
p1334
S'120'
p1335
sS'047039600'
p1336
S'61'
p1337
sS'047116000'
p1338
S'75'
p1339
sS'081018800'
p1340
S'113'
p1341
sS'081059900'
p1342
S'104'
p1343
sS'081071303'
p1344
S'112'
p1345
sS'085015100'
p1346
S'120'
p1347
sS'047122000'
p1348
S'75'
p1349
sS'081071305'
p1350
S'112'
p1351
sS'081071304'
p1352
S'112'
p1353
sS'081092500'
p1354
S'109'
p1355
sS'085023100'
p1356
S'120'
p1357
sS'081070300'
p1358
S'112'
p1359
sS'081023200'
p1360
S'107'
p1361
sS'047030700'
p1362
S'77'
p1363
sS'005024000'
p1364
S'49'
p1365
sS'005000100'
p1366
S'114'
p1367
sS'047099000'
p1368
S'69'
p1369
sS'047018600'
p1370
S'62'
p1371
sS'047057100'
p1372
S'94'
p1373
sS'047040600'
p1374
S'62'
p1375
sS'081064102'
p1376
S'102'
p1377
sS'081064101'
p1378
S'102'
p1379
sS'081031700'
p1380
S'114'
p1381
sS'081003400'
p1382
S'102'
p1383
sS'081016400'
p1384
S'106'
p1385
sS'047041700'
p1386
S'83'
p1387
sS'081040000'
p1388
S'113'
p1389
sS'081095400'
p1390
S'100'
p1391
sS'005021100'
p1392
S'44'
p1393
sS'061023801'
p1394
S'114'
p1395
sS'047026400'
p1396
S'62'
p1397
sS'061023802'
p1398
S'114'
p1399
sS'005011000'
p1400
S'45'
p1401
sS'061023200'
p1402
S'32'
p1403
sS'081046300'
p1404
S'110'
p1405
sS'005003900'
p1406
S'40'
p1407
sS'081093800'
p1408
S'100'
p1409
sS'047117602'
p1410
S'75'
p1411
sS'047117601'
p1412
S'75'
p1413
sS'047052500'
p1414
S'90'
p1415
sS'061019200'
p1416
S'25'
p1417
sS'005042902'
p1418
S'52'
p1419
sS'005042901'
p1420
S'52'
p1421
sS'081060000'
p1422
S'105'
p1423
sS'005030000'
p1424
S'45'
p1425
sS'081001800'
p1426
S'102'
p1427
sS'061008800'
p1428
S'17'
p1429
sS'081084500'
p1430
S'109'
p1431
sS'005037900'
p1432
S'48'
p1433
sS'047035601'
p1434
S'60'
p1435
sS'047035602'
p1436
S'60'
p1437
sS'047004500'
p1438
S'76'
p1439
sS'047041800'
p1440
S'61'
p1441
sS'047058800'
p1442
S'61'
p1443
sS'061009600'
p1444
S'14'
p1445
sS'081079300'
p1446
S'107'
p1447
sS'081042400'
p1448
S'113'
p1449
sS'081025302'
p1450
S'108'
p1451
sS'081025301'
p1452
S'108'
p1453
sS'047053300'
p1454
S'90'
p1455
sS'005026702'
p1456
S'50'
p1457
sS'005026701'
p1458
S'50'
p1459
sS'047020800'
p1460
S'68'
p1461
sS'047118400'
p1462
S'75'
p1463
sS'081058700'
p1464
S'104'
p1465
sS'061026500'
p1466
S'33'
p1467
sS'047029300'
p1468
S'81'
p1469
sS'047033600'
p1470
S'60'
p1471
sS'081071900'
p1472
S'112'
p1473
sS'081012400'
p1474
S'102'
p1475
sS'061004900'
p1476
S'1'
sS'005015200'
p1477
S'45'
p1478
sS'081061602'
p1479
S'105'
p1480
sS'081061601'
p1481
S'105'
p1482
sS'005044400'
p1483
S'47'
p1484
sS'005033201'
p1485
S'49'
p1486
sS'005033202'
p1487
S'49'
p1488
sS'061027900'
p1489
S'34'
p1490
sS'085000900'
p1491
S'120'
p1492
sS'047097400'
p1493
S'69'
p1494
sS'061020901'
p1495
S'26'
p1496
sS'047096200'
p1497
S'69'
p1498
sS'081069300'
p1499
S'112'
p1500
sS'047022400'
p1501
S'66'
p1502
sS'047001800'
p1503
S'72'
p1504
sS'061015002'
p1505
S'19'
p1506
sS'081081800'
p1507
S'106'
p1508
sS'005007800'
p1509
S'43'
p1510
sS'047013500'
p1511
S'78'
p1512
sS'061002500'
p1513
S'5'
sS'047107800'
p1514
S'75'
p1515
sS'081037700'
p1516
S'115'
p1517
sS'081004300'
p1518
S'114'
p1519
sS'047074400'
p1520
S'63'
p1521
sS'081036600'
p1522
S'113'
p1523
sS'081029100'
p1524
S'115'
p1525
sS'081085900'
p1526
S'109'
p1527
sS'081068000'
p1528
S'105'
p1529
sS'081140901'
p1530
S'111'
p1531
sS'047034800'
p1532
S''
sS'005002500'
p1533
S'40'
p1534
sS'061007600'
p1535
S'14'
p1536
sS'047013900'
p1537
S'78'
p1538
sS'081033700'
p1539
S'115'
p1540
sS'081014000'
p1541
S'102'
p1542
sS'061016300'
p1543
S'20'
p1544
sS'047044600'
p1545
S'66'
p1546
sS'047080400'
p1547
S'71'
p1548
sS'081145900'
p1549
S'111'
p1550
sS'081044800'
p1551
S'107'
p1552
sS'047042700'
p1553
S'83'
p1554
sS'047079200'
p1555
S'70'
p1556
sS'081018101'
p1557
S'108'
p1558
sS'081018102'
p1559
S'108'
p1560
sS'081059000'
p1561
S'105'
p1562
sS'005012901'
p1563
S'41'
p1564
sS'081035700'
p1565
S'115'
p1566
sS'047023200'
p1567
S'66'
p1568
sS'005043500'
p1569
S'47'
p1570
sS'081017100'
p1571
S'108'
p1572
sS'047111000'
p1573
S'75'
p1574
sS'005012102'
p1575
S'41'
p1576
sS'005012101'
p1577
S'42'
p1578
sS'047006800'
p1579
S'68'
p1580
sS'081026200'
p1581
S'113'
p1582
sS'081005300'
p1583
S'114'
p1584
sS'047056400'
p1585
S'61'
p1586
sS'061003100'
p1587
S'5'
sS'047072800'
p1588
S'63'
p1589
sS'081084602'
p1590
S'106'
p1591
sS'081063700'
p1592
S'104'
p1593
sS'081052600'
p1594
S'113'
p1595
sS'047080600'
p1596
S'71'
p1597
sS'081134100'
p1598
S'107'
p1599
sS'005040400'
p1600
S'47'
p1601
sS'081051000'
p1602
S'103'
p1603
sS'047047600'
p1604
S'66'
p1605
sS'047005900'
p1606
S'76'
p1607
sS'081015000'
p1608
S'102'
p1609
sS'081014900'
p1610
S'114'
p1611
sS'061010800'
p1612
S'17'
p1613
sS'047027300'
p1614
S'81'
p1615
sS'061017500'
p1616
S'24'
p1617
sS'081115100'
p1618
S'109'
p1619
sS'061003800'
p1620
S'9'
sS'005016000'
p1621
S'45'
p1622
sS'061018300'
p1623
S'24'
p1624
sS'047078400'
p1625
S'67'
p1626
sS'047015500'
p1627
S'78'
p1628
sS'005027700'
p1629
S'50'
p1630
sS'047037700'
p1631
S'81'
p1632
sS'081046000'
p1633
S'103'
p1634
sS'081047900'
p1635
S'110'
p1636
sS'081008300'
p1637
S'114'
p1638
sS'047014100'
p1639
S'72'
p1640
sS'047049000'
p1641
S'66'
p1642
sS'047112200'
p1643
S'75'
p1644
sS'047065400'
p1645
S'63'
p1646
sS'081058900'
p1647
S'104'
p1648
sS'081062500'
p1649
S'104'
p1650
sS'081055900'
p1651
S'104'
p1652
sS'081027000'
p1653
S'113'
p1654
sS'047010600'
p1655
S'66'
p1656
sS'005025700'
p1657
S'52'
p1658
sS'081028500'
p1659
S'115'
p1660
sS'061018700'
p1661
S'24'
p1662
sS'081063900'
p1663
S'104'
p1664
sS'081054500'
p1665
S'104'
p1666
sS'085013203'
p1667
S'122'
p1668
sS'061022500'
p1669
S'30'
p1670
sS'081050600'
p1671
S'103'
p1672
sS'085004700'
p1673
S'120'
p1674
sS'047002901'
p1675
S'88'
p1676
sS'081006300'
p1677
S'114'
p1678
sS'081086900'
p1679
S'109'
p1680
sS'047032600'
p1681
S'60'
p1682
sS'005003700'
p1683
S'40'
p1684
sS'047077200'
p1685
S'70'
p1686
sS'047020300'
p1687
S'77'
p1688
sS'047039700'
p1689
S'83'
p1690
sS'005028800'
p1691
S'49'
p1692
sS'047102200'
p1693
S'69'
p1694
sS'061004000'
p1695
S'9'
sS'047045600'
p1696
S'70'
p1697
sS'061005600'
p1698
S'13'
p1699
sS'047091800'
p1700
S'73'
p1701
sS'081023500'
p1702
S'108'
p1703
sS'047017100'
p1704
S'72'
p1705
sS'047030600'
p1706
S'60'
p1707
sS'081010800'
p1708
S'102'
p1709
sS'061015200'
p1710
S'19'
p1711
sS'005014500'
p1712
S'42'
p1713
sS'047055200'
p1714
S'61'
p1715
sS'047001100'
p1716
S'84'
p1717
sS'005017701'
p1718
S'44'
p1719
sS'047057200'
p1720
S'61'
p1721
sS'047040700'
p1722
S'83'
p1723
sS'081003300'
p1724
S'114'
p1725
sS'061031900'
p1726
S'1'
sS'081119300'
p1727
S'109'
p1728
sS'047098400'
p1729
S'69'
p1730
sS'081040100'
p1731
S'115'
p1732
sS'005041800'
p1733
S'47'
p1734
sS'005021001'
p1735
S'43'
p1736
sS'047075000'
p1737
S'70'
p1738
sS'005021002'
p1739
S'43'
p1740
sS'081079000'
p1741
S'113'
p1742
sS'081015500'
p1743
S'114'
p1744
sS'061023100'
p1745
S'30'
p1746
sS'081103900'
p1747
S'109'
p1748
sS'005003800'
p1749
S'43'
p1750
sS'047013000'
p1751
S'68'
p1752
sS'081093900'
p1753
S'109'
p1754
sS'061019300'
p1755
S'24'
p1756
sS'005039800'
p1757
S'47'
p1758
sS'047021300'
p1759
S'71'
p1760
sS'081060100'
p1761
S'104'
p1762
sS'047086800'
p1763
S'67'
p1764
sS'047119800'
p1765
S'75'
p1766
sS'061016500'
p1767
S'20'
p1768
sS'047091600'
p1769
S'73'
p1770
sS'005034800'
p1771
S'49'
p1772
sS'061008900'
p1773
S'10'
p1774
sS'081038400'
p1775
S'113'
p1776
sS'047004600'
p1777
S'68'
p1778
sS'047035700'
p1779
S'77'
p1780
sS'061000202'
p1781
S'7'
sS'081005800'
p1782
S'106'
p1783
sS'081046600'
p1784
S'107'
p1785
sS'081008500'
p1786
S'114'
p1787
sS'081047000'
p1788
S'103'
p1789
sS'061014000'
p1790
S'19'
p1791
sS'047050804'
p1792
S'70'
p1793
sS'047050803'
p1794
S'70'
p1795
sS'047050801'
p1796
S'70'
p1797
sS'047012600'
p1798
S'68'
p1799
sS'047029200'
p1800
S'62'
p1801
sS'047033700'
p1802
S'77'
p1803
sS'047044800'
p1804
S'66'
p1805
sS'081043900'
p1806
S'110'
p1807
sS'081112900'
p1808
S'111'
p1809
sS'005039000'
p1810
S'47'
p1811
sS'081027500'
p1812
S'115'
p1813
sS'005015300'
p1814
S'42'
p1815
sS'081019600'
p1816
S'103'
p1817
sS'005016900'
p1818
S'42'
p1819
sS'081018000'
p1820
S'113'
p1821
sS'005015900'
p1822
S'41'
p1823
sS'081059100'
p1824
S'104'
p1825
sS'005018500'
p1826
S'42'
p1827
sS'047059200'
p1828
S'61'
p1829
sS'047000502'
p1830
S'84'
p1831
sS'047000501'
p1832
S'84'
p1833
sS'047075200'
p1834
S'70'
p1835
sS'047006600'
p1836
S'68'
p1837
sS'081145102'
p1838
S'111'
p1839
sS'081021900'
p1840
S'108'
p1841
sS'005007700'
p1842
S'40'
p1843
sS'085007700'
p1844
S'120'
p1845
sS'047114202'
p1846
S'75'
p1847
sS'047114201'
p1848
S'75'
p1849
sS'047028100'
p1850
S'79'
p1851
sS'081069500'
p1852
S'112'
p1853
sS'081118700'
p1854
S'109'
p1855
sS'005031200'
p1856
S'49'
p1857
sS'047092800'
p1858
S'67'
p1859
sS'061017200'
p1860
S'23'
p1861
sS'081022001'
p1862
S'107'
p1863
sS'061007100'
p1864
S'6'
sS'081098700'
p1865
S'109'
p1866
sS'081014700'
p1867
S'114'
p1868
sS'047083200'
p1869
S'67'
p1870
sS'047044700'
p1871
S'83'
p1872
sS'085017012'
p1873
S'123'
p1874
sS'047042400'
p1875
S'62'
p1876
sS'047087401'
p1877
S'71'
p1878
sS'005008600'
p1879
S'43'
p1880
sS'085017010'
p1881
S'123'
p1882
sS'047037401'
p1883
S'61'
p1884
sS'047037402'
p1885
S'60'
p1886
sS'081058500'
p1887
S'104'
p1888
sS'047023100'
p1889
S'88'
p1890
sS'081119500'
p1891
S'109'
p1892
sS'081017600'
p1893
S'106'
p1894
sS'005043400'
p1895
S'47'
p1896
sS'081067900'
p1897
S'104'
p1898
sS'047024800'
p1899
S'62'
p1900
sS'047006900'
p1901
S'76'
p1902
sS'081056800'
p1903
S'105'
p1904
sS'047093600'
p1905
S'67'
p1906
sS'047107000'
p1907
S'75'
p1908
sS'081026300'
p1909
S'108'
p1910
sS'005023704'
p1911
S'46'
p1912
sS'081005200'
p1913
S'102'
p1914
sS'061003002'
p1915
S'9'
sS'005023702'
p1916
S'46'
p1917
sS'005023703'
p1918
S'46'
p1919
sS'047009800'
p1920
S'72'
p1921
sS'081052100'
p1922
S'104'
p1923
sS'047115000'
p1924
S'75'
p1925
sS'085009700'
p1926
S'120'
p1927
sS'081065501'
p1928
S'104'
p1929
sS'047058000'
p1930
S'61'
p1931
sS'005040501'
p1932
S'52'
p1933
sS'061024900'
p1934
S'33'
p1935
sS'005040502'
p1936
S'52'
p1937
sS'047005800'
p1938
S'68'
p1939
sS'047095600'
p1940
S'69'
p1941
sS'081014800'
p1942
S'102'
p1943
sS'005024700'
p1944
S'46'
p1945
sS'047048000'
p1946
S'70'
p1947
sS'047027200'
p1948
S'62'
p1949
sS'061025500'
p1950
S'33'
p1951
sS'081000800'
p1952
S'102'
p1953
sS'005005600'
p1954
S'43'
p1955
sS'047015200'
p1956
S'68'
p1957
sS'047031701'
p1958
S'77'
p1959
sS'005004600'
p1960
S'43'
p1961
sS'047031702'
p1962
S'77'
p1963
sS'081071100'
p1964
S'112'
p1965
sS'061018800'
p1966
S'25'
p1967
sS'061004100'
p1968
S'5'
sS'085012806'
p1969
S'122'
p1970
sS'085012805'
p1971
S'122'
p1972
sS'047014000'
p1973
S'68'
p1974
sS'005024800'
p1975
S'49'
p1976
sS'005038301'
p1977
S'46'
p1978
sS'005038302'
p1979
S'48'
p1980
sS'047076000'
p1981
S'70'
p1982
sS'081006201'
p1983
S'106'
p1984
sS'081152901'
p1985
S'111'
p1986
sS'047066000'
p1987
S'63'
p1988
sS'081152902'
p1989
S'111'
p1990
sS'081020400'
p1991
S'103'
p1992
sS'047010100'
p1993
S'72'
p1994
sS'005025600'
p1995
S'49'
p1996
sS'061029700'
p1997
S''
sS'005021700'
p1998
S'46'
p1999
sS'047082000'
p2000
S'67'
p2001
sS'081030903'
p2002
S'115'
p2003
sS'061008100'
p2004
S'10'
p2005
sS'061022600'
p2006
S'32'
p2007
sS'081100802'
p2008
S'101'
p2009
sS'081030904'
p2010
S'115'
p2011
sS'081050500'
p2012
S'104'
p2013
sS'047005100'
p2014
S'76'
p2015
sS'061001501'
p2016
S'1'
sS'061001502'
p2017
S'1'
sS'061010601'
p2018
S''
sS'047054300'
p2019
S'88'
p2020
sS'047020000'
p2021
S'68'
p2022
sS'047039000'
p2023
S'61'
p2024
sS'061010602'
p2025
S''
sS'047116200'
p2026
S'75'
p2027
sS'005028900'
p2028
S'50'
p2029
sS'081046100'
p2030
S'110'
p2031
sS'061027100'
p2032
S'34'
p2033
sS'005030200'
p2034
S'45'
p2035
sS'061005501'
p2036
S'6'
sS'061005502'
p2037
S'9'
sS'047017200'
p2038
S'62'
p2039
sS'005045600'
p2040
S'47'
p2041
sS'085024402'
p2042
S'123'
p2043
sS'085024401'
p2044
S'123'
p2045
sS'061015300'
p2046
S'20'
p2047
sS'005014400'
p2048
S'45'
p2049
sS'047099600'
p2050
S'69'
p2051
sS'047057300'
p2052
S'94'
p2053
sS'081010701'
p2054
S'114'
p2055
sS'081003200'
p2056
S'102'
p2057
sS'081021200'
p2058
S'103'
p2059
sS'047040800'
p2060
S'62'
p2061
sS'081024300'
p2062
S'108'
p2063
sS'081116700'
p2064
S'109'
p2065
sS'061009400'
p2066
S'14'
p2067
sS'081015600'
p2068
S'102'
p2069
sS'081990100'
p2070
S''
sS'061023000'
p2071
S'32'
p2072
sS'085020700'
p2073
S''
sS'085017600'
p2074
S'123'
p2075
sS'047013100'
p2076
S'78'
p2077
sS'061011202'
p2078
S'18'
p2079
sS'061011203'
p2080
S'17'
p2081
sS'061011201'
p2082
S'18'
p2083
sS'047117400'
p2084
S'75'
p2085
sS'047052300'
p2086
S'90'
p2087
sS'081122701'
p2088
S'107'
p2089
sS'081122702'
p2090
S'107'
p2091
sS'005039901'
p2092
S'52'
p2093
sS'047081000'
p2094
S'71'
p2095
sS'005039902'
p2096
S'46'
p2097
sS'047021200'
p2098
S'68'
p2099
sS'005041100'
p2100
S'52'
p2101
sS'081061400'
p2102
S'105'
p2103
sS'005042100'
p2104
S'52'
p2105
sS'047043700'
p2106
S'83'
p2107
sS'005006800'
p2108
S'43'
p2109
sS'047111800'
p2110
S'75'
p2111
sS'081026901'
p2112
S'110'
p2113
sS'085001700'
p2114
S'120'
p2115
sS'081056100'
p2116
S'104'
p2117
sS'061002100'
p2118
S'1'
sS'047025500'
p2119
S'79'
p2120
sS'081072900'
p2121
S'112'
p2122
sS'047004700'
p2123
S'76'
p2124
sS'047007500'
p2125
S'76'
p2126
sS'061000900'
p2127
S'1'
sS'081133900'
p2128
S'107'
p2129
sS'005036300'
p2130
S'48'
p2131
sS'081099802'
p2132
S'101'
p2133
sS'047069601'
p2134
S''
sS'081099801'
p2135
S'101'
p2136
sS'061014300'
p2137
S'22'
p2138
sS'081042600'
p2139
S'113'
p2140
sS'061006200'
p2141
S'13'
p2142
sS'081051800'
p2143
S'113'
p2144
sS'047118202'
p2145
S'75'
p2146
sS'047118201'
p2147
S'75'
p2148
sS'061026700'
p2149
S'34'
p2150
sS'047029500'
p2151
S'81'
p2152
sS'047063600'
p2153
S'63'
p2154
sS'085021300'
p2155
S'120'
p2156
sS'061010000'
p2157
S'17'
p2158
sS'081012601'
p2159
S'102'
p2160
sS'081012602'
p2161
S'102'
p2162
sS'005008900'
p2163
S'41'
p2164
sS'081013600'
p2165
S'102'
p2166
sS'061013200'
p2167
S'19'
p2168
sS'081044601'
p2169
S'103'
p2170
sS'081059200'
p2171
S'105'
p2172
sS'047096000'
p2173
S'69'
p2174
sS'005018400'
p2175
S'45'
p2176
sS'005045800'
p2177
S'47'
p2178
sS'005006700'
p2179
S'40'
p2180
sS'047014900'
p2181
S'72'
p2182
sS'005013300'
p2183
S'42'
p2184
sS'047036700'
p2185
S'73'
p2186
sS'081002400'
p2187
S'102'
p2188
sS'081037100'
p2189
S'115'
p2190
sS'005007600'
p2191
S'43'
p2192
sS'081055100'
p2193
S'104'
p2194
sS'081029900'
p2195
S'114'
p2196
sS'081069400'
p2197
S'105'
p2198
sS'005002701'
p2199
S'40'
p2200
sS'061017300'
p2201
S'24'
p2202
sS'005002702'
p2203
S'40'
p2204
sS'047061600'
p2205
S'61'
p2206
sS'061007000'
p2207
S'17'
p2208
sS'081076902'
p2209
S'112'
p2210
sS'061000201'
p2211
S'7'
sS'047088400'
p2212
S'67'
p2213
sS'081028700'
p2214
S'115'
p2215
sS'047123700'
p2216
S'79'
p2217
sS'047044000'
p2218
S'66'
p2219
sS'081114700'
p2220
S'109'
p2221
sS'047042500'
p2222
S'83'
p2223
sS'047079400'
p2224
S'67'
p2225
sS'081064500'
p2226
S'112'
p2227
sS'005029600'
p2228
S'49'
p2229
sS'085027301'
p2230
S'122'
p2231
sS'085027302'
p2232
S'122'
p2233
sS'047037500'
p2234
S'81'
p2235
sS'047038700'
p2236
S'81'
p2237
sS'047019500'
p2238
S'88'
p2239
sS'005027900'
p2240
S'50'
p2241
sS'047023000'
p2242
S'66'
p2243
sS'005012300'
p2244
S'43'
p2245
sS'047990100'
p2246
S''
sS'047017900'
p2247
S'88'
p2248
sS'047024900'
p2249
S'79'
p2250
sS'061009500'
p2251
S'10'
p2252
sS'081026000'
p2253
S'103'
p2254
sS'081091601'
p2255
S'100'
p2256
sS'081091602'
p2257
S'100'
p2258
sS'005023600'
p2259
S'49'
p2260
sS'047011200'
p2261
S'66'
p2262
sS'081121100'
p2263
S'109'
p2264
sS'047113400'
p2265
S'75'
p2266
sS'047073200'
p2267
S'63'
p2268
sS'047051800'
p2269
S'70'
p2270
sS'047072000'
p2271
S'63'
p2272
sS'005020000'
p2273
S'45'
p2274
sS'085009601'
p2275
S'122'
p2276
sS'081065400'
p2277
S'105'
p2278
sS'085009602'
p2279
S'122'
p2280
sS'047046400'
p2281
S'66'
p2282
sS'081041500'
p2283
S'110'
p2284
sS'047062000'
p2285
S''
sS'005042500'
p2286
S'52'
p2287
sS'047027100'
p2288
S'79'
p2289
sS'047089200'
p2290
S'73'
p2291
sS'081080302'
p2292
S'107'
p2293
sS'081080301'
p2294
S'109'
p2295
sS'081007300'
p2296
S'114'
p2297
sS'047086000'
p2298
S'67'
p2299
sS'047102400'
p2300
S'69'
p2301
sS'061004200'
p2302
S'9'
sS'061020500'
p2303
S'26'
p2304
sS'081011800'
p2305
S'102'
p2306
sS'005024900'
p2307
S'46'
p2308
sS'005038200'
p2309
S'47'
p2310
sS'061012200'
p2311
S'19'
p2312
sS'047065600'
p2313
S'63'
p2314
sS'005034000'
p2315
S'47'
p2316
sS'047024000'
p2317
S'66'
p2318
sS'005019900'
p2319
S'44'
p2320
sS'081088901'
p2321
S'109'
p2322
sS'081142900'
p2323
S'111'
p2324
sS'081027200'
p2325
S'113'
p2326
sS'081045400'
p2327
S'107'
p2328
sS'047016500'
p2329
S'78'
p2330
sS'081020500'
p2331
S'108'
p2332
sS'081120500'
p2333
S'109'
p2334
sS'047010000'
p2335
S'72'
p2336
sS'005025500'
p2337
S'52'
p2338
sS'081040900'
p2339
S'115'
p2340
sS'047121400'
p2341
S'75'
p2342
sS'081074500'
p2343
S'112'
p2344
sS'005021602'
p2345
S'43'
p2346
sS'005021601'
p2347
S'43'
p2348
sS'061022700'
p2349
S'30'
p2350
sS'081050400'
p2351
S'103'
p2352
sS'061001401'
p2353
S'7'
sS'047005000'
p2354
S'68'
p2355
sS'061001402'
p2356
S'7'
sS'081004700'
p2357
S'114'
p2358
sS'047077000'
p2359
S'70'
p2360
sS'047020100'
p2361
S'88'
p2362
sS'047053400'
p2363
S'70'
p2364
sS'081129104'
p2365
S'111'
p2366
sS'081129103'
p2367
S'111'
p2368
sS'081129102'
p2369
S'111'
p2370
sS'047021500'
p2371
S'77'
p2372
sS'081060300'
p2373
S'104'
p2374
sS'061005400'
p2375
S'13'
p2376
sS'081137700'
p2377
S'111'
p2378
sS'047043900'
p2379
S'83'
p2380
sS'081011700'
p2381
S'114'
p2382
sS'005000400'
p2383
S'43'
p2384
sS'061015001'
p2385
S'19'
p2386
sS'005014300'
p2387
S'42'
p2388
sS'047057400'
p2389
S'61'
p2390
sS'081010600'
p2391
S'106'
p2392
sS'081003100'
p2393
S'114'
p2394
sS'047100800'
p2395
S'69'
p2396
sS'005037200'
p2397
S'47'
p2398
sS'061016700'
p2399
S'20'
p2400
sS'047040900'
p2401
S'83'
p2402
sS'081026600'
p2403
S'113'
p2404
sS'061031100'
p2405
S''
sS'047007400'
p2406
S'72'
p2407
sS'081099705'
p2408
S'109'
p2409
sS'081099704'
p2410
S'109'
p2411
sS'061009300'
p2412
S'10'
p2413
sS'085017300'
p2414
S'122'
p2415
sS'081099701'
p2416
S'109'
p2417
sS'081099703'
p2418
S'109'
p2419
sS'047035900'
p2420
S'77'
p2421
sS'081015700'
p2422
S'114'
p2423
sS'047115800'
p2424
S'75'
p2425
sS'047089800'
p2426
S'73'
p2427
sS'047013200'
p2428
S'68'
p2429
sS'047039800'
p2430
S'61'
p2431
sS'061011300'
p2432
S'14'
p2433
sS'081033000'
p2434
S'113'
p2435
sS'081063000'
p2436
S'105'
p2437
sS'081013700'
p2438
S'114'
p2439
sS'005042200'
p2440
S'47'
p2441
sS'081019000'
p2442
S'113'
p2443
sS'085005900'
p2444
S'120'
p2445
sS'047119000'
p2446
S'75'
p2447
sS'085013204'
p2448
S'122'
p2449
sS'047043600'
p2450
S'62'
p2451
sS'085017011'
p2452
S'123'
p2453
sS'085013201'
p2454
S'122'
p2455
sS'005022703'
p2456
S'44'
p2457
sS'005022702'
p2458
S'44'
p2459
sS'005022701'
p2460
S'46'
p2461
sS'047117201'
p2462
S'75'
p2463
sS'047036900'
p2464
S'73'
p2465
sS'047018800'
p2466
S'62'
p2467
sS'081053500'
p2468
S'104'
p2469
sS'047008600'
p2470
S'72'
p2471
sS'081056000'
p2472
S'105'
p2473
sS'081155101'
p2474
S'105'
p2475
sS'081155102'
p2476
S'105'
p2477
sS'047025400'
p2478
S'62'
p2479
sS'047061003'
p2480
S'60'
p2481
sS'085002002'
p2482
S'122'
p2483
sS'081062200'
p2484
S'105'
p2485
sS'085002001'
p2486
S'120'
p2487
sS'047092000'
p2488
S'73'
p2489
sS'047051300'
p2490
S'90'
p2491
sS'061014200'
p2492
S'19'
p2493
sS'081042700'
p2494
S'110'
p2495
sS'061006300'
p2496
S'6'
sS'047004900'
p2497
S'76'
p2498
sS'047070203'
p2499
S'75'
p2500
sS'047070202'
p2501
S''
sS'047070201'
p2502
S'63'
p2503
sS'047069602'
p2504
S'63'
p2505
sS'081077500'
p2506
S'102'
p2507
sS'047033500'
p2508
S'71'
p2509
sS'061010300'
p2510
S'10'
p2511
sS'061004800'
p2512
S'13'
p2513
sS'081048400'
p2514
S'103'
p2515
sS'081076901'
p2516
S'112'
p2517
sS'047032100'
p2518
S'71'
p2519
sS'005028100'
p2520
S'50'
p2521
sS'061013300'
p2522
S'18'
p2523
sS'047003400'
p2524
S'68'
p2525
sS'081059300'
p2526
S'104'
p2527
sS'081001200'
p2528
S'102'
p2529
sS'047059000'
p2530
S'61'
p2531
sS'005006000'
p2532
S'48'
p2533
sS'047000700'
p2534
S'84'
p2535
sS'047014800'
p2536
S'68'
p2537
sS'047036600'
p2538
S'60'
p2539
sS'081002500'
p2540
S'114'
p2541
sS'081055200'
p2542
S'105'
p2543
sS'047008800'
p2544
S'72'
p2545
sS'085007500'
p2546
S'120'
p2547
sS'061021400'
p2548
S'32'
p2549
sS'005013200'
p2550
S'45'
p2551
sS'081109700'
p2552
S'111'
p2553
sS'047115200'
p2554
S'75'
p2555
sS'085003600'
p2556
S'120'
p2557
sS'081089200'
p2558
S''
sS'047009600'
p2559
S'72'
p2560
sS'005031000'
p2561
S'49'
p2562
sS'047028900'
p2563
S'81'
p2564
sS'047067600'
p2565
S'63'
p2566
sS'061030300'
p2567
S'34'
p2568
sS'081118900'
p2569
S'109'
p2570
sS'061007300'
p2571
S'6'
sS'061002201'
p2572
S'7'
sS'047050300'
p2573
S'90'
p2574
sS'005002800'
p2575
S'43'
p2576
sS'047083400'
p2577
S'67'
p2578
sS'047044100'
p2579
S'83'
p2580
sS'081130100'
p2581
S'105'
p2582
sS'005029500'
p2583
S'50'
p2584
sS'081009500'
p2585
S'114'
p2586
sS'047031100'
p2587
S'77'
p2588
sS'005051600'
p2589
S'45'
p2590
sS'081141700'
p2591
S'111'
p2592
sS'047038600'
p2593
S'61'
p2594
sS'081035200'
p2595
S'113'
p2596
sS'047048100'
p2597
S'90'
p2598
sS'081017400'
p2599
S'106'
p2600
sS'085011201'
p2601
S'122'
p2602
sS'085011202'
p2603
S'122'
p2604
sS'061019702'
p2605
S'28'
p2606
sS'005023100'
p2607
S'46'
p2608
sS'061019701'
p2609
S'26'
p2610
sS'005025400'
p2611
S'49'
p2612
sS'047051900'
p2613
S'94'
p2614
sS'047056300'
p2615
S'94'
p2616
sS'005020100'
p2617
S'44'
p2618
sS'047041600'
p2619
S'61'
p2620
sS'047058200'
p2621
S'61'
p2622
sS'005040303'
p2623
S'52'
p2624
sS'005040302'
p2625
S'52'
p2626
sS'047035000'
p2627
S'60'
p2628
sS'005040304'
p2629
S'52'
p2630
sS'081079900'
p2631
S'109'
p2632
sS'085990100'
p2633
S''
sS'081041400'
p2634
S'103'
p2635
sS'081103201'
p2636
S'101'
p2637
sS'081103202'
p2638
S'101'
p2639
sS'047027000'
p2640
S'62'
p2641
sS'061025700'
p2642
S'28'
p2643
sS'047094402'
p2644
S'63'
p2645
sS'047094401'
p2646
S'63'
p2647
sS'005004400'
p2648
S'43'
p2649
sS'061004300'
p2650
S'5'
sS'047049500'
p2651
S'90'
p2652
sS'005038500'
p2653
S'48'
p2654
sS'085000700'
p2655
S'120'
p2656
sS'047076200'
p2657
S'70'
p2658
sS'005034300'
p2659
S'50'
p2660
sS'047024100'
p2661
S'79'
p2662
sS'005044200'
p2663
S'47'
p2664
sS'061008200'
p2665
S'17'
p2666
sS'081020600'
p2667
S'103'
p2668
sS'047016400'
p2669
S'68'
p2670
sS'005001900'
p2671
S'40'
p2672
sS'081024500'
p2673
S'108'
p2674
sS'005021501'
p2675
S'46'
p2676
sS'005021502'
p2677
S'46'
p2678
sS'081096400'
p2679
S'100'
p2680
sS'081085300'
p2681
S'109'
p2682
sS'061022000'
p2683
S'28'
p2684
sS'061001300'
p2685
S'1'
sS'081025900'
p2686
S'108'
p2687
sS'081109300'
p2688
S'111'
p2689
sS'081039800'
p2690
S'113'
p2691
sS'047116400'
p2692
S'75'
p2693
sS'047053500'
p2694
S'90'
p2695
sS'081033100'
p2696
S''
sS'047021400'
p2697
S'68'
p2698
sS'005041300'
p2699
S'52'
p2700
sS'061027700'
p2701
S'34'
p2702
sS'047064400'
p2703
S'63'
p2704
sS'081070700'
p2705
S'112'
p2706
sS'081011000'
p2707
S'102'
p2708
sS'061015100'
p2709
S'20'
p2710
sS'081022002'
p2711
S'107'
p2712
sS'081018700'
p2713
S'108'
p2714
sS'081079702'
p2715
S'109'
p2716
sS'047099400'
p2717
S'69'
p2718
sS'081001900'
p2719
S'108'
p2720
sS'081003000'
p2721
S'102'
p2722
sS'005037300'
p2723
S'48'
p2724
sS'005046201'
p2725
S'45'
p2726
sS'005046202'
p2727
S'47'
p2728
sS'047007700'
p2729
S'76'
p2730
sS'047040000'
p2731
S'62'
p2732
sS'081036500'
p2733
S'115'
p2734
sS'085017005'
p2735
S'123'
p2736
sS'081005500'
p2737
S'114'
p2738
sS'085017007'
p2739
S'123'
p2740
sS'085017008'
p2741
S'123'
p2742
sS'085017009'
p2743
S'123'
p2744
sS'081015802'
p2745
S'106'
p2746
sS'081015801'
p2747
S'106'
p2748
sS'081086300'
p2749
S'109'
p2750
sS'061016900'
p2751
S'20'
p2752
sS'081022900'
p2753
S'108'
p2754
sS'061007800'
p2755
S'17'
p2756
sS'047013300'
p2757
S'78'
p2758
sS'047039900'
p2759
S'83'
p2760
sS'061011000'
p2761
S'19'
p2762
sS'081026100'
p2763
S'108'
p2764
sS'061010200'
p2765
S'18'
p2766
sS'081049700'
p2767
S'104'
p2768
sS'061002400'
p2769
S'9'
sS'081013400'
p2770
S'102'
p2771
sS'047081800'
p2772
S'67'
p2773
sS'047097000'
p2774
S'69'
p2775
sS'081115700'
p2776
S'109'
p2777
sS'081074300'
p2778
S'112'
p2779
sS'047043100'
p2780
S'83'
p2781
sS'085013302'
p2782
S'120'
p2783
sS'085013301'
p2784
S'120'
p2785
sS'047078200'
p2786
S'67'
p2787
sS'005022401'
p2788
S'49'
p2789
sS'005022403'
p2790
S'49'
p2791
sS'005022404'
p2792
S'49'
p2793
sS'047048800'
p2794
S'66'
p2795
sS'047023800'
p2796
S'66'
p2797
sS'085001100'
p2798
S'120'
p2799
sS'081055300'
p2800
S'104'
p2801
sS'085007400'
p2802
S'122'
p2803
sS'047112400'
p2804
S'75'
p2805
sS'081052800'
p2806
S'113'
p2807
sS'081062300'
p2808
S'104'
p2809
sS'047010800'
p2810
S'72'
p2811
sS'047051001'
p2812
S'70'
p2813
sS'047051002'
p2814
S'70'
p2815
sS'047055300'
p2816
S'94'
p2817
sS'047026500'
p2818
S'79'
p2819
sS'081109900'
p2820
S'111'
p2821
sS'047118000'
p2822
S'75'
p2823
sS'081134700'
p2824
S'107'
p2825
sS'005042000'
p2826
S'47'
p2827
sS'047062800'
p2828
S'61'
p2829
sS'047047000'
p2830
S'66'
p2831
sS'047044200'
p2832
S'66'
p2833
sS'081049900'
p2834
S'110'
p2835
sS'061013400'
p2836
S'19'
p2837
sS'005016300'
p2838
S'42'
p2839
sS'047003700'
p2840
S'84'
p2841
sS'081059400'
p2842
S'105'
p2843
sS'005032800'
p2844
S'49'
p2845
sS'005006100'
p2846
S'44'
p2847
sS'085022800'
p2848
S'123'
p2849
sS'081071600'
p2850
S'113'
p2851
sS'047036100'
p2852
S'73'
p2853
sS'005024100'
p2854
S'46'
p2855
sS'081037300'
p2856
S'115'
p2857
sS'047085000'
p2858
S'67'
p2859
sS'081037900'
p2860
S'115'
p2861
sS'005027600'
p2862
S'45'
p2863
sS'081016900'
p2864
S'108'
p2865
sS'047113200'
p2866
S'75'
p2867
sS'047073000'
p2868
S'63'
p2869
sS'005005002'
p2870
S'43'
p2871
sS'081063301'
p2872
S'104'
p2873
sS'081063302'
p2874
S'104'
p2875
sS'081063500'
p2876
S'104'
p2877
sS'047028600'
p2878
S'62'
p2879
sS'081048500'
p2880
S'110'
p2881
sS'047050202'
p2882
S'72'
p2883
sS'047019400'
p2884
S'62'
p2885
sS'047027900'
p2886
S'81'
p2887
sS'047088600'
p2888
S'67'
p2889
sS'047089000'
p2890
S'67'
p2891
sS'081061200'
p2892
S'105'
p2893
sS'085018100'
p2894
S'122'
p2895
sS'081136700'
p2896
S'111'
p2897
sS'061019900'
p2898
S'26'
p2899
sS'047038500'
p2900
S'81'
p2901
sS'081107201'
p2902
S'100'
p2903
sS'081107202'
p2904
S'100'
p2905
sS'005035000'
p2906
S'49'
p2907
sS'061002800'
p2908
S'9'
sS'047101600'
p2909
S'69'
p2910
sS'061015801'
p2911
S'19'
p2912
sS'061015802'
p2913
S'23'
p2914
sS'061017700'
p2915
S'24'
p2916
sS'081045600'
p2917
S'107'
p2918
sS'047016300'
p2919
S'77'
p2920
sS'081004001'
p2921
S'102'
p2922
sS'081004002'
p2923
S'106'
p2924
sS'047010200'
p2925
S'72'
p2926
sS'005025300'
p2927
S'52'
p2928
sS'005001600'
p2929
S'43'
p2930
sS'047072200'
p2931
S'63'
p2932
sS'047056200'
p2933
S'61'
p2934
sS'047041500'
p2935
S'83'
p2936
sS'081048000'
p2937
S'103'
p2938
sS'005007100'
p2939
S'40'
p2940
sS'047035100'
p2941
S'71'
p2942
sS'047046202'
p2943
S'66'
p2944
sS'047046201'
p2945
S'70'
p2946
sS'081103300'
p2947
S'109'
p2948
sS'081094700'
p2949
S'109'
p2950
sS'005026400'
p2951
S'45'
p2952
sS'005017901'
p2953
S'44'
p2954
sS'047027700'
p2955
S'81'
p2956
sS'005017902'
p2957
S'44'
p2958
sS'061023700'
p2959
S'30'
p2960
sS'005017300'
p2961
S'44'
p2962
sS'081000100'
p2963
S'108'
p2964
sS'047086600'
p2965
S'67'
p2966
sS'061019000'
p2967
S'28'
p2968
sS'047102600'
p2969
S'69'
p2970
sS'061004400'
p2971
S'13'
p2972
sS'005005100'
p2973
S'40'
p2974
sS'081039400'
p2975
S'113'
p2976
sS'047049400'
p2977
S'66'
p2978
sS'081061302'
p2979
S'104'
p2980
sS'081061301'
p2981
S'104'
p2982
sS'005034200'
p2983
S'49'
p2984
sS'047024600'
p2985
S'62'
p2986
sS'005033500'
p2987
S'50'
p2988
sS'047101800'
p2989
S'69'
p2990
sS'047065800'
p2991
S'63'
p2992
sS'005037400'
p2993
S'47'
p2994
sS'005018302'
p2995
S'44'
p2996
sS'047090600'
p2997
S'73'
p2998
sS'005018301'
p2999
S'44'
p3000
sS'047100600'
p3001
S'69'
p3002
sS'081024600'
p3003
S'103'
p3004
sS'081046800'
p3005
S'103'
p3006
sS'061003001'
p3007
S'7'
sS'047085800'
p3008
S'67'
p3009
sS'081045200'
p3010
S'107'
p3011
sS'047034500'
p3012
S'77'
p3013
sS'047005602'
p3014
S'68'
p3015
sS'047005601'
p3016
S'68'
p3017
sS'061001200'
p3018
S'7'
sS'081025800'
p3019
S'103'
p3020
sS'081047600'
p3021
S'107'
p3022
sS'081043702'
p3023
S'110'
p3024
sS'081043701'
p3025
S'110'
p3026
sS'061011100'
p3027
S'14'
p3028
sS'047052000'
p3029
S'70'
p3030
sS'047021700'
p3031
S'77'
p3032
sS'081019800'
p3033
S'103'
p3034
sS'047044900'
p3035
S'94'
p3036
sS'047032900'
p3037
S'71'
p3038
sS'081011100'
p3039
S'114'
p3040
sS'005014100'
p3041
S'42'
p3042
sS'081066300'
p3043
S'104'
p3044
sS'081018600'
p3045
S'113'
p3046
sS'047059800'
p3047
S'61'
p3048
sS'005013800'
p3049
S'45'
p3050
sS'081101001'
p3051
S'101'
p3052
sS'047008000'
p3053
S'72'
p3054
sS'081056200'
p3055
S'105'
p3056
sS'081003900'
p3057
S'114'
p3058
sS'085022600'
p3059
S'123'
p3060
sS'047074200'
p3061
S'63'
p3062
sS'047007600'
p3063
S'72'
p3064
sS'047093000'
p3065
S'67'
p3066
sS'047040100'
p3067
S'83'
p3068
sS'081008100'
p3069
S'114'
p3070
sS'081099100'
p3071
S'109'
p3072
sS'081005400'
p3073
S'106'
p3074
sS'061022800'
p3075
S'32'
p3076
sS'081063800'
p3077
S'105'
p3078
sS'005031800'
p3079
S'49'
p3080
sS'047085200'
p3081
S'67'
p3082
sS'081015900'
p3083
S'114'
p3084
sS'081086400'
p3085
S'106'
p3086
sS'047068200'
p3087
S'63'
p3088
sS'081118100'
p3089
S'111'
p3090
sS'061016800'
p3091
S'23'
p3092
sS'047013400'
p3093
S'68'
p3094
sS'047028502'
p3095
S'79'
p3096
sS'061017402'
p3097
S'23'
p3098
sS'005002000'
p3099
S'43'
p3100
sS'061017401'
p3101
S'23'
p3102
sS'061016200'
p3103
S'23'
p3104
sS'081049600'
p3105
S'105'
p3106
sS'047055000'
p3107
S'61'
p3108
sS'081013500'
p3109
S'114'
p3110
sS'081051100'
p3111
S'104'
p3112
sS'047031900'
p3113
S'71'
p3114
sS'047119200'
p3115
S'75'
p3116
sS'047054500'
p3117
S'90'
p3118
sS'081047500'
p3119
S'110'
p3120
sS'047043000'
p3121
S'62'
p3122
sS'005022500'
p3123
S'44'
p3124
sS'047000100'
p3125
S'84'
p3126
sS'005009600'
p3127
S'43'
p3128
sS'047048900'
p3129
S'90'
p3130
sS'047019200'
p3131
S'62'
p3132
sS'081058000'
p3133
S'105'
p3134
sS'005023900'
p3135
S'46'
p3136
sS'047018000'
p3137
S'62'
p3138
sS'047084600'
p3139
S'67'
p3140
sS'081016600'
p3141
S'106'
p3142
sS'061003300'
p3143
S'1'
sS'005033400'
p3144
S'52'
p3145
sS'081017000'
p3146
S'106'
p3147
sS'081028800'
p3148
S'113'
p3149
sS'081084000'
p3150
S'106'
p3151
sS'081090700'
p3152
S'109'
p3153
sS'047051100'
p3154
S'90'
p3155
sS'005020900'
p3156
S'44'
p3157
sS'047026600'
p3158
S'62'
p3159
sS'005038800'
p3160
S'47'
p3161
sS'061024700'
p3162
S'33'
p3163
sS'081144700'
p3164
S'111'
p3165
sS'047069000'
p3166
S'63'
p3167
sS'047044300'
p3168
S'83'
p3169
sS'081045700'
p3170
S'110'
p3171
sS'005028300'
p3172
S'50'
p3173
sS'061013500'
p3174
S'18'
p3175
sS'005016200'
p3176
S'45'
p3177
sS'047020600'
p3178
S'68'
p3179
sS'047003600'
p3180
S'68'
p3181
sS'081012100'
p3182
S'114'
p3183
sS'081066900'
p3184
S'104'
p3185
sS'081001400'
p3186
S'102'
p3187
sS'081146700'
p3188
S'111'
p3189
sS'005015500'
p3190
S'42'
p3191
sS'005006200'
p3192
S'43'
p3193
sS'085012200'
p3194
S'122'
p3195
sS'047030500'
p3196
S'77'
p3197
sS'081071702'
p3198
S'112'
p3199
sS'081071701'
p3200
S'112'
p3201
sS'047036002'
p3202
S'60'
p3203
sS'047036001'
p3204
S'60'
p3205
sS'061012900'
p3206
S'18'
p3207
sS'081026902'
p3208
S'110'
p3209
sS'085011402'
p3210
S'122'
p3211
sS'061015900'
p3212
S'20'
p3213
sS'085011401'
p3214
S'122'
p3215
sS'047017400'
p3216
S'62'
p3217
sS'047074800'
p3218
S'70'
p3219
sS'047075400'
p3220
S'70'
p3221
sS'061021600'
p3222
S'28'
p3223
sS'081063200'
p3224
S'105'
p3225
sS'005041500'
p3226
S'52'
p3227
sS'085030301'
p3228
S'120'
p3229
sS'047067400'
p3230
S'63'
p3231
sS'047028700'
p3232
S'81'
p3233
sS'047050500'
p3234
S'90'
p3235
sS'061029100'
p3236
S'34'
p3237
sS'047083600'
p3238
S'67'
p3239
sS'047027800'
p3240
S'62'
p3241
sS'047082600'
p3242
S'67'
p3243
sS'061023600'
p3244
S'32'
p3245
sS'061025100'
p3246
S'33'
p3247
sS'081030600'
p3248
S'105'
p3249
sS'047039100'
p3250
S'83'
p3251
sS'061018200'
p3252
S'23'
p3253
sS'047052900'
p3254
S'90'
p3255
sS'047031300'
p3256
S'77'
p3257
sS'005004200'
p3258
S'43'
p3259
sS'047117202'
p3260
S'75'
p3261
sS'047042200'
p3262
S'61'
p3263
sS'005035100'
p3264
S'50'
p3265
sS'085014100'
p3266
S'120'
p3267
sS'061002900'
p3268
S'5'
sS'047006700'
p3269
S'76'
p3270
sS'005030900'
p3271
S'50'
p3272
sS'061022102'
p3273
S'32'
p3274
sS'061019800'
p3275
S'25'
p3276
sS'047016200'
p3277
S'68'
p3278
sS'081073700'
p3279
S'112'
p3280
sS'047073800'
p3281
S'63'
p3282
sS'081045900'
p3283
S'110'
p3284
sS'047056100'
p3285
S'94'
p3286
sS'047098600'
p3287
S'69'
p3288
sS'081053200'
p3289
S'113'
p3290
sS'047041401'
p3291
S'61'
p3292
sS'047041402'
p3293
S'61'
p3294
sS'081068200'
p3295
S'105'
p3296
sS'081008800'
p3297
S'106'
p3298
sS'005040100'
p3299
S'52'
p3300
sS'047035200'
p3301
S'60'
p3302
sS'081118500'
p3303
S'109'
p3304
sS'081025100'
p3305
S'108'
p3306
sS'005026500'
p3307
S'52'
p3308
sS'081079701'
p3309
S'109'
p3310
sS'061011800'
p3311
S'19'
p3312
sS'047094600'
p3313
S'67'
p3314
sS'081007900'
p3315
S'114'
p3316
sS'085018901'
p3317
S'120'
p3318
sS'085018902'
p3319
S'120'
p3320
sS'085022300'
p3321
S'120'
p3322
sS'061019100'
p3323
S'24'
p3324
sS'061026100'
p3325
S'33'
p3326
sS'005008700'
p3327
S'41'
p3328
sS'047049700'
p3329
S'90'
p3330
sS'005005001'
p3331
S'43'
p3332
sS'061018400'
p3333
S'23'
p3334
sS'005038700'
p3335
S'48'
p3336
sS'047022600'
p3337
S'66'
p3338
sS'085005000'
p3339
S'122'
p3340
sS'047024700'
p3341
S'79'
p3342
sS'005033600'
p3343
S'49'
p3344
sS'047096600'
p3345
S'69'
p3346
sS'005037504'
p3347
S'48'
p3348
sS'081024700'
p3349
S'108'
p3350
sS'081046900'
p3351
S'110'
p3352
sS'081052000'
p3353
S'113'
p3354
sS'061028500'
p3355
S'34'
p3356
sS'085002900'
p3357
S'120'
p3358
sS'081058200'
p3359
S'105'
p3360
sS'005036901'
p3361
S'48'
p3362
sS'005036902'
p3363
S'48'
p3364
sS'061006800'
p3365
S'13'
p3366
sS'047105804'
p3367
S'75'
p3368
sS'005018102'
p3369
S'44'
p3370
sS'047105801'
p3371
S'75'
p3372
sS'061011600'
p3373
S'19'
p3374
sS'081122300'
p3375
S'107'
p3376
sS'081108500'
p3377
S'111'
p3378
sS'047029400'
p3379
S'62'
p3380
sS'047021600'
p3381
S'66'
p3382
sS'047080800'
p3383
S'71'
p3384
sS'081019900'
p3385
S'108'
p3386
sS'061027500'
p3387
S'34'
p3388
sS'047064200'
p3389
S'61'
p3390
sS'047015300'
p3391
S'78'
p3392
sS'047032800'
p3393
S'60'
p3394
sS'081011200'
p3395
S'102'
p3396
sS'081027300'
p3397
S'115'
p3398
sS'081066000'
p3399
S'105'
p3400
sS'047022800'
p3401
S'66'
p3402
sS'081018501'
p3403
S'108'
p3404
sS'081018502'
p3405
S'108'
p3406
sS'047019300'
p3407
S'88'
p3408
sS'061020600'
p3409
S'25'
p3410
sS'081056500'
p3411
S'104'
p3412
sS'047023600'
p3413
S'66'
p3414
sS'081003800'
p3415
S'102'
p3416
sS'005007500'
p3417
S'40'
p3418
sS'005012500'
p3419
S'42'
p3420
sS'047007100'
p3421
S'78'
p3422
sS'047040200'
p3423
S'61'
p3424
sS'081099200'
p3425
S'101'
p3426
sS'081036300'
p3427
S'115'
p3428
sS'061022900'
p3429
S'30'
p3430
sS'005031900'
p3431
S'50'
p3432
sS'081051200'
p3433
S'105'
p3434
sS'081086500'
p3435
S'109'
p3436
sS'081006502'
p3437
S'114'
p3438
sS'081006501'
p3439
S'114'
p3440
sS'081161700'
p3441
S'105'
p3442
sS'005003500'
p3443
S'40'
p3444
sS'047055800'
p3445
S'61'
p3446
sS'081013200'
p3447
S'102'
p3448
sS'047055100'
p3449
S'90'
p3450
sS'081080900'
p3451
S'107'
p3452
sS'081029500'
p3453
S'114'
p3454
sS'047103400'
p3455
S'69'
p3456
sS'047045400'
p3457
S'66'
p3458
sS'047081600'
p3459
S'67'
p3460
sS'047043300'
p3461
S'83'
p3462
sS'047014300'
p3463
S'72'
p3464
sS'047078000'
p3465
S'67'
p3466
sS'005027300'
p3467
S'50'
p3468
sS'047037300'
p3469
S'73'
p3470
sS'047036300'
p3471
S'73'
p3472
sS'005024300'
p3473
S'46'
p3474
sS'081091800'
p3475
S'100'
p3476
sS'061018000'
p3477
S'23'
p3478
sS'061012800'
p3479
S'19'
p3480
sS'047018300'
p3481
S'88'
p3482
sS'005023800'
p3483
S'49'
p3484
sS'081016100'
p3485
S'114'
p3486
sS'081083800'
p3487
S'106'
p3488
sS'061003200'
p3489
S'9'
sS'081040700'
p3490
S'110'
p3491
sS'005027402'
p3492
S'45'
p3493
sS'081120300'
p3494
S'109'
p3495
sS'061000500'
p3496
S'76'
p3497
sS'047026700'
p3498
S'79'
p3499
sS'081083700'
p3500
S'109'
p3501
sS'005040800'
p3502
S'47'
p3503
sS'047118800'
p3504
S'75'
p3505
sS'047088000'
p3506
S'67'
p3507
sS'081050202'
p3508
S'103'
p3509
sS'081050201'
p3510
S'103'
p3511
sS'081100801'
p3512
S'101'
p3513
sS'047047800'
p3514
S'66'
p3515
sS'047015900'
p3516
S'78'
p3517
sS'005028400'
p3518
S'49'
p3519
sS'061013600'
p3520
S'19'
p3521
sS'005016500'
p3522
S'44'
p3523
sS'047020700'
p3524
S'77'
p3525
sS'081012000'
p3526
S'102'
p3527
sS'005035800'
p3528
S'47'
p3529
sS'047003900'
p3530
S'84'
p3531
sS'005006300'
p3532
S'40'
p3533
sS'047076800'
p3534
S'70'
p3535
sS'005005902'
p3536
S'44'
p3537
sS'085015601'
p3538
S'122'
p3539
sS'085015602'
p3540
S'123'
p3541
sS'085015603'
p3542
S'122'
p3543
sS'047101000'
p3544
S'69'
p3545
sS'005006900'
p3546
S'40'
p3547
sS'061005200'
p3548
S'13'
p3549
sS'081075702'
p3550
S'112'
p3551
sS'081075701'
p3552
S'112'
p3553
sS'047017500'
p3554
S'72'
p3555
sS'061015602'
p3556
S'23'
p3557
sS'005000200'
p3558
S'43'
p3559
sS'061015601'
p3560
S'19'
p3561
sS'047066200'
p3562
S'63'
p3563
sS'047113000'
p3564
S'75'
p3565
sS'047073600'
p3566
S'63'
p3567
sS'081054900'
p3568
S'104'
p3569
sS'081028000'
p3570
S'113'
p3571
sS'061021900'
p3572
S'26'
p3573
sS'061016100'
p3574
S'20'
p3575
sS'047050400'
p3576
S'72'
p3577
sS'081094500'
p3578
S'109'
p3579
sS'081015100'
p3580
S'114'
p3581
sS'061023501'
p3582
S'30'
p3583
sS'061023502'
p3584
S'32'
p3585
sS'085018702'
p3586
S'122'
p3587
sS'081007700'
p3588
S'114'
p3589
sS'085018701'
p3590
S'120'
p3591
sS'081030902'
p3592
S'115'
p3593
sS'047052800'
p3594
S'70'
p3595
sS'085027702'
p3596
S'122'
p3597
sS'085027704'
p3598
S'122'
p3599
sS'085027705'
p3600
S'122'
p3601
sS'085027706'
p3602
S'122'
p3603
sS'047038300'
p3604
S'81'
p3605
sS'047042300'
p3606
S'83'
p3607
sS'047025902'
p3608
S'79'
p3609
sS'081128300'
p3610
S'107'
p3611
sS'005035600'
p3612
S'47'
p3613
sS'047000900'
p3614
S'84'
p3615
sS'005019300'
p3616
S'44'
p3617
sS'047024400'
p3618
S'66'
p3619
sS'047025901'
p3620
S'79'
p3621
sS'005013000'
p3622
S'45'
p3623
sS'005033700'
p3624
S'50'
p3625
sS'047006400'
p3626
S'68'
p3627
sS'047016100'
p3628
S'88'
p3629
sS'047057500'
p3630
S'94'
p3631
sS'081010500'
p3632
S'114'
p3633
sS'047011800'
p3634
S'72'
p3635
sS'081045800'
p3636
S'107'
p3637
sS'047056000'
p3638
S'61'
p3639
sS'081065000'
p3640
S'105'
p3641
sS'081068300'
p3642
S'110'
p3643
sS'047093800'
p3644
S'67'
p3645
sS'061030900'
p3646
S'50'
p3647
sS'081099900'
p3648
S'109'
p3649
sS'047035300'
p3650
S'77'
p3651
sS'081041100'
p3652
S'110'
p3653
sS'047120000'
p3654
S'75'
p3655
sS'061006900'
p3656
S'6'
sS'081014500'
p3657
S'114'
p3658
sS'061011900'
p3659
S'14'
p3660
sS'081102900'
p3661
S'109'
p3662
sS'005017100'
p3663
S'44'
p3664
sS'047069800'
p3665
S'63'
p3666
sS'047086400'
p3667
S'67'
p3668
sS'061019600'
p3669
S'25'
p3670
sS'047012200'
p3671
S'72'
p3672
sS'005008400'
p3673
S'43'
p3674
sS'081035800'
p3675
S'105'
p3676
sS'061006500'
p3677
S'6'
sS'005038600'
p3678
S'47'
p3679
sS'047022700'
p3680
S'79'
p3681
sS'005042400'
p3682
S'47'
p3683
sS'081066100'
p3684
S'104'
p3685
sS'081018401'
p3686
S'113'
p3687
sS'081018402'
p3688
S'113'
p3689
sS'061007400'
p3690
S'14'
p3691
sS'081115500'
p3692
S'109'
p3693
sS'085001800'
p3694
S'122'
p3695
sS'005037600'
p3696
S'47'
p3697
sS'047059600'
p3698
S'61'
p3699
sS'047065000'
p3700
S'63'
p3701
sS'047054400'
p3702
S'70'
p3703
sS'061009900'
p3704
S'10'
p3705
sS'047056900'
p3706
S'94'
p3707
sS'081055400'
p3708
S'105'
p3709
sS'061018600'
p3710
S'28'
p3711
sS'047058600'
p3712
S'61'
p3713
sS'005036800'
p3714
S'47'
p3715
sS'061001001'
p3716
S'7'
sS'047005400'
p3717
S'68'
p3718
sS'061001002'
p3719
S'7'
sS'047095400'
p3720
S'69'
p3721
sS'005031600'
p3722
S'49'
p3723
sS'081048200'
p3724
S'103'
p3725
sS'047029700'
p3726
S'81'
p3727
sS'005021200'
p3728
S'43'
p3729
sS'047077600'
p3730
S'70'
p3731
sS'047015000'
p3732
S'68'
p3733
sS'047109800'
p3734
S'75'
p3735
sS'085013800'
p3736
S'122'
p3737
sS'081011600'
p3738
S'102'
p3739
sS'081011900'
p3740
S'114'
p3741
sS'061012100'
p3742
S'14'
p3743
sS'081092900'
p3744
S'109'
p3745
sS'005014900'
p3746
S'42'
p3747
sS'047019000'
p3748
S'62'
p3749
sS'047008200'
p3750
S'72'
p3751
sS'081002600'
p3752
S'102'
p3753
sS'081017200'
p3754
S'106'
p3755
sS'047001500'
p3756
S'88'
p3757
sS'005007400'
p3758
S'43'
p3759
sS'047074000'
p3760
S'63'
p3761
sS'047040300'
p3762
S'83'
p3763
sS'081003700'
p3764
S'114'
p3765
sS'081054200'
p3766
S'105'
p3767
sS'061028700'
p3768
S'34'
p3769
sS'081051300'
p3770
S'104'
p3771
sS'005040900'
p3772
S'50'
p3773
sS'047026800'
p3774
S'62'
p3775
sS'047069200'
p3776
S'63'
p3777
sS'081150701'
p3778
S'111'
p3779
sS'081150702'
p3780
S'111'
p3781
sS'061016001'
p3782
S'19'
p3783
sS'061016002'
p3784
S'23'
p3785
sS'081077908'
p3786
S'107'
p3787
sS'081077907'
p3788
S'107'
p3789
sS'081077906'
p3790
S'107'
p3791
sS'081077905'
p3792
S'107'
p3793
sS'081077904'
p3794
S'107'
p3795
sS'081077903'
p3796
S'107'
p3797
sS'081077902'
p3798
S'107'
p3799
sS'081124100'
p3800
S'107'
p3801
sS'047080000'
p3802
S'71'
p3803
sS'047045300'
p3804
S'90'
p3805
sS'047043200'
p3806
S'62'
p3807
sS'005029302'
p3808
S'50'
p3809
sS'047014200'
p3810
S'68'
p3811
sS'005029301'
p3812
S'50'
p3813
sS'081023600'
p3814
S'103'
p3815
sS'047030300'
p3816
S'73'
p3817
sS'047043800'
p3818
S'66'
p3819
sS'047036200'
p3820
S'60'
p3821
sS'081091900'
p3822
S'109'
p3823
sS'047018200'
p3824
S'62'
p3825
sS'047049300'
p3826
S'90'
p3827
sS'005034500'
p3828
S'50'
p3829
sS'047084800'
p3830
S'67'
p3831
sS'081040400'
p3832
S'113'
p3833
sS'047092400'
p3834
S'73'
p3835
sS'081084601'
p3836
S'106'
p3837
sS'081027700'
p3838
S'115'
p3839
sS'061008400'
p3840
S'14'
p3841
sS'081068700'
p3842
S'112'
p3843
sS'081065900'
p3844
S'104'
p3845
sS'047050700'
p3846
S'90'
p3847
sS'005021302'
p3848
S'44'
p3849
sS'005021301'
p3850
S'46'
p3851
sS'047082400'
p3852
S'67'
p3853
sS'061025900'
p3854
S'32'
p3855
sS'047062200'
p3856
S'61'
p3857
sS'081147900'
p3858
S'111'
p3859
sS'081093401'
p3860
S'100'
p3861
sS'081093402'
p3862
S''
sS'005039100'
p3863
S'48'
p3864
sS'061013700'
p3865
S'18'
p3866
sS'005016400'
p3867
S'45'
p3868
sS'047020400'
p3869
S'68'
p3870
sS'061014602'
p3871
S'19'
p3872
sS'061026900'
p3873
S'34'
p3874
sS'081001600'
p3875
S'102'
p3876
sS'005035900'
p3877
S'42'
p3878
sS'081000600'
p3879
S'102'
p3880
sS'047003800'
p3881
S''
sS'005019400'
p3882
S'45'
p3883
sS'005044800'
p3884
S'47'
p3885
sS'085024800'
p3886
S'123'
p3887
sS'081020800'
p3888
S'103'
p3889
sS'047004100'
p3890
S'84'
p3891
sS'047075600'
p3892
S'70'
p3893
sS'061015700'
p3894
S'20'
p3895
sS'047025700'
p3896
S'79'
p3897
sS'081054800'
p3898
S'105'
p3899
sS'081028100'
p3900
S'115'
p3901
sS'081084900'
p3902
S'109'
p3903
sS'061021800'
p3904
S'28'
p3905
sS'061009200'
p3906
S'17'
p3907
sS'081021600'
p3908
S'102'
p3909
sS'081071306'
p3910
S'112'
p3911
sS'081025700'
p3912
S'108'
p3913
sS'061006000'
p3914
S'13'
p3915
sS'081008600'
p3916
S'106'
p3917
sS'005026300'
p3918
S'52'
p3919
sS'081015200'
p3920
S'102'
p3921
sS'061029900'
p3922
S'34'
p3923
sS'061023400'
p3924
S'32'
p3925
sS'081117100'
p3926
S'109'
p3927
sS'047039300'
p3928
S'83'
p3929
sS'047117000'
p3930
S'75'
p3931
sS'047052700'
p3932
S'90'
p3933
sS'047022000'
p3934
S'66'
p3935
sS'081061000'
p3936
S'105'
p3937
sS'005039700'
p3938
S'52'
p3939
sS'047024500'
p3940
S'79'
p3941
sS'005033000'
p3942
S'49'
p3943
sS'005013100'
p3944
S'42'
p3945
sS'047006500'
p3946
S'76'
p3947
sS'081072100'
p3948
S'112'
p3949
sS'047057600'
p3950
S'61'
p3951
sS'047016000'
p3952
S'68'
p3953
sS'081073100'
p3954
S'112'
p3955
sS'081010400'
p3956
S'106'
p3957
sS'005022200'
p3958
S'43'
p3959
sS'047011900'
p3960
S'78'
p3961
sS'081053000'
p3962
S'113'
p3963
sS'005036100'
p3964
S'48'
p3965
sS'047035400'
p3966
S'60'
p3967
sS'047046800'
p3968
S'66'
p3969
sS'047061002'
p3970
S'61'
p3971
sS'047061004'
p3972
S'60'
p3973
sS'081047300'
p3974
S'110'
p3975
sS'061015500'
p3976
S'20'
p3977
sS'081014400'
p3978
S'102'
p3979
sS'081038100'
p3980
S'115'
p3981
sS'081097204'
p3982
S'101'
p3983
sS'081114100'
p3984
S'109'
p3985
sS'081087100'
p3986
S'109'
p3987
sS'047079601'
p3988
S'71'
p3989
sS'047079602'
p3990
S'70'
p3991
sS'047012100'
p3992
S'78'
p3993
sS'005008500'
p3994
S'41'
p3995
sS'081044400'
p3996
S'103'
p3997
sS'061010400'
p3998
S'18'
p3999
sS'047018100'
p4000
S'88'
p4001
sS'081035300'
p4002
S'115'
p4003
sS'047048200'
p4004
S'70'
p4005
sS'081012800'
p4006
S'102'
p4007
sS'005043100'
p4008
S'52'
p4009
sS'061003400'
p4010
S'9'
sS'081018300'
p4011
S'108'
p4012
sS'047096400'
p4013
S'69'
p4014
sS'047009000'
p4015
S'72'
p4016
sS'081002800'
p4017
S'102'
p4018
sS'085012500'
p4019
S'120'
p4020
sS'085029104'
p4021
S'122'
p4022
sS'005023000'
p4023
S'49'
p4024
sS'047011000'
p4025
S'66'
p4026
sS'085029102'
p4027
S'122'
p4028
sS'085029103'
p4029
S'122'
p4030
sS'061009800'
p4031
S'17'
p4032
sS'047056800'
p4033
S'61'
p4034
sS'081052200'
p4035
S'113'
p4036
sS'081062900'
p4037
S'104'
p4038
sS'081055500'
p4039
S'104'
p4040
sS'061010100'
p4041
S'14'
p4042
sS'085003300'
p4043
S'120'
p4044
sS'081156700'
p4045
S'105'
p4046
sS'081085500'
p4047
S'109'
p4048
sS'081046200'
p4049
S'103'
p4050
sS'005002300'
p4051
S'40'
p4052
sS'047054200'
p4053
S'70'
p4054
sS'081043400'
p4055
S'113'
p4056
sS'085002100'
p4057
S'120'
p4058
sS'047070000'
p4059
S'63'
p4060
sS'081048300'
p4061
S'108'
p4062
sS'047029600'
p4063
S'62'
p4064
sS'047064000'
p4065
S'63'
p4066
sS'047015100'
p4067
S'78'
p4068
sS'081009400'
p4069
S'106'
p4070
sS'047044400'
p4071
S'66'
p4072
sS'047078800'
p4073
S'70'
p4074
sS'047014500'
p4075
S'72'
p4076
sS'081058300'
p4077
S'104'
p4078
sS'047031400'
p4079
S'60'
p4080
sS'061012000'
p4081
S'19'
p4082
sS'081092800'
p4083
S'100'
p4084
sS'047054800'
p4085
S'61'
p4086
sS'047019100'
p4087
S'88'
p4088
sS'047054900'
p4089
S'90'
p4090
sS'005007300'
p4091
S'40'
p4092
sS'047099200'
p4093
S'69'
p4094
sS'047040400'
p4095
S'62'
p4096
sS'061029500'
p4097
S'34'
p4098
sS'081003600'
p4099
S'102'
p4100
sS'081036100'
p4101
S'115'
p4102
sS'005020200'
p4103
S'45'
p4104
sS'061021100'
p4105
S'26'
p4106
sS'005011502'
p4107
S'41'
p4108
sS'047072400'
p4109
S'63'
p4110
sS'047026900'
p4111
S'79'
p4112
sS'085019700'
p4113
S'120'
p4114
sS'047088800'
p4115
S'67'
p4116
sS'047120800'
p4117
S'75'
p4118
sS'005040600'
p4119
S'47'
p4120
sS'081008700'
p4121
S'114'
p4122
sS'081049301'
p4123
S'104'
p4124
sS'081049302'
p4125
S'104'
p4126
sS'047055700'
p4127
S'94'
p4128
sS'047030400'
p4129
S'62'
p4130
sS'061022400'
p4131
S'32'
p4132
sS'047089600'
p4133
S'73'
p4134
sS'061007500'
p4135
S'6'
sS'047045200'
p4136
S'66'
p4137
sS'081000700'
p4138
S'108'
p4139
sS'047030200'
p4140
S'62'
p4141
sS'085024700'
p4142
S'120'
p4143
sS'047102000'
p4144
S'69'
p4145
sS'047019800'
p4146
S'68'
p4147
sS'047049200'
p4148
S'66'
p4149
sS'081016300'
p4150
S'114'
p4151
sS'005034400'
p4152
S'49'
p4153
sS'047016900'
p4154
S'72'
p4155
sS'047007800'
p4156
S'72'
p4157
sS'081040500'
p4158
S'110'
p4159
sS'081074700'
p4160
S'112'
p4161
sS'081027600'
p4162
S'113'
p4163
sS'081045000'
p4164
S'107'
p4165
sS'081120100'
p4166
S'109'
p4167
sS'047010400'
p4168
S'66'
p4169
sS'081024000'
p4170
S'103'
p4171
sS'047050600'
p4172
S'70'
p4173
sS'047051602'
p4174
S'70'
p4175
sS'047051601'
p4176
S'70'
p4177
sS'047034300'
p4178
S'77'
p4179
sS'047118600'
p4180
S'75'
p4181
sS'047063200'
p4182
S'61'
p4183
sS'005016700'
p4184
S'42'
p4185
sS'047020500'
p4186
S'77'
p4187
sS'081053401'
p4188
S'105'
p4189
sS'005030701'
p4190
S'50'
p4191
sS'047028000'
p4192
S'62'
p4193
sS'081061900'
p4194
S'104'
p4195
sS'047021100'
p4196
S'88'
p4197
sS'005019500'
p4198
S'44'
p4199
sS'005044901'
p4200
S'47'
p4201
sS'047087600'
p4202
S'71'
p4203
sS'047003100'
p4204
S'88'
p4205
sS'005044902'
p4206
S'47'
p4207
sS'047101200'
p4208
S'69'
p4209
sS'047076400'
p4210
S'70'
p4211
sS'061005000'
p4212
S'13'
p4213
sS'005018900'
p4214
S'44'
p4215
sS'047025600'
p4216
S'62'
p4217
sS'081037500'
p4218
S'115'
p4219
sS'081028200'
p4220
S'113'
p4221
sS'061009100'
p4222
S'13'
p4223
sS'081074900'
p4224
S'112'
p4225
sS'061014402'
p4226
S'19'
p4227
sS'061014401'
p4228
S'19'
p4229
sS'047120200'
p4230
S'75'
p4231
sS'061006100'
p4232
S'9'
sS'085017700'
p4233
S'122'
p4234
sS'081126500'
p4235
S'107'
p4236
sS'081015300'
p4237
S'114'
p4238
sS'061023300'
p4239
S'30'
p4240
sS'047002200'
p4241
S'72'
p4242
sS'047033300'
p4243
S'71'
p4244
sS'061003900'
p4245
S'1'
sS'081019200'
p4246
S'113'
p4247
sS'047052600'
p4248
S'70'
p4249
s.