ccopy_reg
_reconstructor
p1
(csklearn.feature_extraction.dict_vectorizer
DictVectorizer
p2
c__builtin__
object
p3
NtRp4
(dp5
S'sort'
p6
I01
sS'feature_names_'
p7
(lp8
S'age'
p9
aS'race=B'
p10
aS'race=H'
p11
aS'race=O'
p12
aS'race=W'
p13
aS'sex=F'
p14
aS'sex=M'
p15
aS'sex=Z'
p16
aS'time'
p17
aS'tract=000100'
p18
aS'tract=000200'
p19
aS'tract=000201'
p20
aS'tract=000202'
p21
aS'tract=000300'
p22
aS'tract=000301'
p23
aS'tract=000400'
p24
aS'tract=000501'
p25
aS'tract=000502'
p26
aS'tract=000600'
p27
aS'tract=000700'
p28
aS'tract=000800'
p29
aS'tract=000900'
p30
aS'tract=001000'
p31
aS'tract=001001'
p32
aS'tract=001002'
p33
aS'tract=001100'
p34
aS'tract=001200'
p35
aS'tract=001300'
p36
aS'tract=001400'
p37
aS'tract=001401'
p38
aS'tract=001402'
p39
aS'tract=001500'
p40
aS'tract=001501'
p41
aS'tract=001502'
p42
aS'tract=001600'
p43
aS'tract=001700'
p44
aS'tract=001800'
p45
aS'tract=001900'
p46
aS'tract=002000'
p47
aS'tract=002001'
p48
aS'tract=002002'
p49
aS'tract=002100'
p50
aS'tract=002200'
p51
aS'tract=002201'
p52
aS'tract=002202'
p53
aS'tract=002300'
p54
aS'tract=002400'
p55
aS'tract=002500'
p56
aS'tract=002600'
p57
aS'tract=002601'
p58
aS'tract=002602'
p59
aS'tract=002700'
p60
aS'tract=002701'
p61
aS'tract=002702'
p62
aS'tract=002800'
p63
aS'tract=002900'
p64
aS'tract=002901'
p65
aS'tract=003000'
p66
aS'tract=003001'
p67
aS'tract=003002'
p68
aS'tract=003100'
p69
aS'tract=003200'
p70
aS'tract=003300'
p71
aS'tract=003400'
p72
aS'tract=003500'
p73
aS'tract=003600'
p74
aS'tract=003601'
p75
aS'tract=003602'
p76
aS'tract=003700'
p77
aS'tract=003800'
p78
aS'tract=003900'
p79
aS'tract=004000'
p80
aS'tract=004001'
p81
aS'tract=004002'
p82
aS'tract=004100'
p83
aS'tract=004200'
p84
aS'tract=004300'
p85
aS'tract=004400'
p86
aS'tract=004401'
p87
aS'tract=004500'
p88
aS'tract=004600'
p89
aS'tract=004700'
p90
aS'tract=004800'
p91
aS'tract=004900'
p92
aS'tract=005000'
p93
aS'tract=005001'
p94
aS'tract=005002'
p95
aS'tract=005100'
p96
aS'tract=005200'
p97
aS'tract=005201'
p98
aS'tract=005202'
p99
aS'tract=005300'
p100
aS'tract=005400'
p101
aS'tract=005500'
p102
aS'tract=005501'
p103
aS'tract=005502'
p104
aS'tract=005600'
p105
aS'tract=005601'
p106
aS'tract=005602'
p107
aS'tract=005700'
p108
aS'tract=005800'
p109
aS'tract=005900'
p110
aS'tract=005902'
p111
aS'tract=006000'
p112
aS'tract=006100'
p113
aS'tract=006200'
p114
aS'tract=006201'
p115
aS'tract=006202'
p116
aS'tract=006300'
p117
aS'tract=006400'
p118
aS'tract=006500'
p119
aS'tract=006501'
p120
aS'tract=006502'
p121
aS'tract=006600'
p122
aS'tract=006700'
p123
aS'tract=006800'
p124
aS'tract=006900'
p125
aS'tract=007000'
p126
aS'tract=007100'
p127
aS'tract=007200'
p128
aS'tract=007300'
p129
aS'tract=007400'
p130
aS'tract=007500'
p131
aS'tract=007600'
p132
aS'tract=007700'
p133
aS'tract=007800'
p134
aS'tract=007900'
p135
aS'tract=008000'
p136
aS'tract=008100'
p137
aS'tract=008200'
p138
aS'tract=008300'
p139
aS'tract=008400'
p140
aS'tract=008500'
p141
aS'tract=008600'
p142
aS'tract=008601'
p143
aS'tract=008602'
p144
aS'tract=008603'
p145
aS'tract=008700'
p146
aS'tract=008800'
p147
aS'tract=008900'
p148
aS'tract=009000'
p149
aS'tract=009100'
p150
aS'tract=009200'
p151
aS'tract=009300'
p152
aS'tract=009400'
p153
aS'tract=009500'
p154
aS'tract=009600'
p155
aS'tract=009601'
p156
aS'tract=009602'
p157
aS'tract=009700'
p158
aS'tract=009800'
p159
aS'tract=009900'
p160
aS'tract=010000'
p161
aS'tract=010100'
p162
aS'tract=010200'
p163
aS'tract=010300'
p164
aS'tract=010400'
p165
aS'tract=010500'
p166
aS'tract=010600'
p167
aS'tract=010601'
p168
aS'tract=010602'
p169
aS'tract=010701'
p170
aS'tract=010800'
p171
aS'tract=010900'
p172
aS'tract=011000'
p173
aS'tract=011100'
p174
aS'tract=011200'
p175
aS'tract=011201'
p176
aS'tract=011202'
p177
aS'tract=011203'
p178
aS'tract=011300'
p179
aS'tract=011400'
p180
aS'tract=011401'
p181
aS'tract=011402'
p182
aS'tract=011500'
p183
aS'tract=011502'
p184
aS'tract=011600'
p185
aS'tract=011700'
p186
aS'tract=011800'
p187
aS'tract=011900'
p188
aS'tract=012000'
p189
aS'tract=012100'
p190
aS'tract=012101'
p191
aS'tract=012102'
p192
aS'tract=012200'
p193
aS'tract=012300'
p194
aS'tract=012301'
p195
aS'tract=012400'
p196
aS'tract=012500'
p197
aS'tract=012600'
p198
aS'tract=012601'
p199
aS'tract=012602'
p200
aS'tract=012700'
p201
aS'tract=012701'
p202
aS'tract=012800'
p203
aS'tract=012801'
p204
aS'tract=012804'
p205
aS'tract=012805'
p206
aS'tract=012806'
p207
aS'tract=012900'
p208
aS'tract=012901'
p209
aS'tract=012902'
p210
aS'tract=013000'
p211
aS'tract=013100'
p212
aS'tract=013200'
p213
aS'tract=013201'
p214
aS'tract=013203'
p215
aS'tract=013204'
p216
aS'tract=013300'
p217
aS'tract=013301'
p218
aS'tract=013302'
p219
aS'tract=013400'
p220
aS'tract=013500'
p221
aS'tract=013600'
p222
aS'tract=013700'
p223
aS'tract=013800'
p224
aS'tract=013900'
p225
aS'tract=014000'
p226
aS'tract=014100'
p227
aS'tract=014200'
p228
aS'tract=014201'
p229
aS'tract=014202'
p230
aS'tract=014300'
p231
aS'tract=014400'
p232
aS'tract=014401'
p233
aS'tract=014402'
p234
aS'tract=014500'
p235
aS'tract=014601'
p236
aS'tract=014602'
p237
aS'tract=014604'
p238
aS'tract=014605'
p239
aS'tract=014606'
p240
aS'tract=014607'
p241
aS'tract=014608'
p242
aS'tract=014700'
p243
aS'tract=014701'
p244
aS'tract=014702'
p245
aS'tract=014800'
p246
aS'tract=014801'
p247
aS'tract=014802'
p248
aS'tract=014900'
p249
aS'tract=015000'
p250
aS'tract=015001'
p251
aS'tract=015002'
p252
aS'tract=015100'
p253
aS'tract=015200'
p254
aS'tract=015300'
p255
aS'tract=015400'
p256
aS'tract=015500'
p257
aS'tract=015600'
p258
aS'tract=015601'
p259
aS'tract=015602'
p260
aS'tract=015603'
p261
aS'tract=015700'
p262
aS'tract=015800'
p263
aS'tract=015801'
p264
aS'tract=015802'
p265
aS'tract=015900'
p266
aS'tract=016000'
p267
aS'tract=016001'
p268
aS'tract=016002'
p269
aS'tract=016100'
p270
aS'tract=016200'
p271
aS'tract=016300'
p272
aS'tract=016400'
p273
aS'tract=016500'
p274
aS'tract=016600'
p275
aS'tract=016700'
p276
aS'tract=016800'
p277
aS'tract=016900'
p278
aS'tract=016901'
p279
aS'tract=017000'
p280
aS'tract=017005'
p281
aS'tract=017007'
p282
aS'tract=017008'
p283
aS'tract=017009'
p284
aS'tract=017010'
p285
aS'tract=017011'
p286
aS'tract=017012'
p287
aS'tract=017100'
p288
aS'tract=017200'
p289
aS'tract=017300'
p290
aS'tract=017400'
p291
aS'tract=017401'
p292
aS'tract=017402'
p293
aS'tract=017500'
p294
aS'tract=017600'
p295
aS'tract=017700'
p296
aS'tract=017701'
p297
aS'tract=017702'
p298
aS'tract=017800'
p299
aS'tract=017900'
p300
aS'tract=017901'
p301
aS'tract=017902'
p302
aS'tract=018000'
p303
aS'tract=018100'
p304
aS'tract=018101'
p305
aS'tract=018102'
p306
aS'tract=018200'
p307
aS'tract=018300'
p308
aS'tract=018301'
p309
aS'tract=018302'
p310
aS'tract=018400'
p311
aS'tract=018401'
p312
aS'tract=018402'
p313
aS'tract=018500'
p314
aS'tract=018501'
p315
aS'tract=018502'
p316
aS'tract=018600'
p317
aS'tract=018700'
p318
aS'tract=018701'
p319
aS'tract=018702'
p320
aS'tract=018800'
p321
aS'tract=018900'
p322
aS'tract=018901'
p323
aS'tract=018902'
p324
aS'tract=019000'
p325
aS'tract=019100'
p326
aS'tract=019200'
p327
aS'tract=019300'
p328
aS'tract=019400'
p329
aS'tract=019500'
p330
aS'tract=019600'
p331
aS'tract=019700'
p332
aS'tract=019701'
p333
aS'tract=019702'
p334
aS'tract=019800'
p335
aS'tract=019900'
p336
aS'tract=020000'
p337
aS'tract=020100'
p338
aS'tract=020101'
p339
aS'tract=020102'
p340
aS'tract=020200'
p341
aS'tract=020300'
p342
aS'tract=020400'
p343
aS'tract=020500'
p344
aS'tract=020501'
p345
aS'tract=020502'
p346
aS'tract=020600'
p347
aS'tract=020601'
p348
aS'tract=020700'
p349
aS'tract=020701'
p350
aS'tract=020800'
p351
aS'tract=020801'
p352
aS'tract=020803'
p353
aS'tract=020804'
p354
aS'tract=020900'
p355
aS'tract=020901'
p356
aS'tract=021000'
p357
aS'tract=021001'
p358
aS'tract=021002'
p359
aS'tract=021100'
p360
aS'tract=021200'
p361
aS'tract=021300'
p362
aS'tract=021301'
p363
aS'tract=021302'
p364
aS'tract=021303'
p365
aS'tract=021400'
p366
aS'tract=021500'
p367
aS'tract=021501'
p368
aS'tract=021502'
p369
aS'tract=021600'
p370
aS'tract=021601'
p371
aS'tract=021602'
p372
aS'tract=021700'
p373
aS'tract=021703'
p374
aS'tract=021800'
p375
aS'tract=021900'
p376
aS'tract=022000'
p377
aS'tract=022001'
p378
aS'tract=022002'
p379
aS'tract=022100'
p380
aS'tract=022101'
p381
aS'tract=022102'
p382
aS'tract=022200'
p383
aS'tract=022300'
p384
aS'tract=022301'
p385
aS'tract=022302'
p386
aS'tract=022400'
p387
aS'tract=022401'
p388
aS'tract=022403'
p389
aS'tract=022404'
p390
aS'tract=022500'
p391
aS'tract=022600'
p392
aS'tract=022700'
p393
aS'tract=022701'
p394
aS'tract=022702'
p395
aS'tract=022703'
p396
aS'tract=022800'
p397
aS'tract=022900'
p398
aS'tract=022901'
p399
aS'tract=022902'
p400
aS'tract=023000'
p401
aS'tract=023100'
p402
aS'tract=023200'
p403
aS'tract=023300'
p404
aS'tract=023301'
p405
aS'tract=023302'
p406
aS'tract=023400'
p407
aS'tract=023500'
p408
aS'tract=023501'
p409
aS'tract=023502'
p410
aS'tract=023600'
p411
aS'tract=023700'
p412
aS'tract=023702'
p413
aS'tract=023703'
p414
aS'tract=023704'
p415
aS'tract=023800'
p416
aS'tract=023801'
p417
aS'tract=023802'
p418
aS'tract=023900'
p419
aS'tract=024000'
p420
aS'tract=024100'
p421
aS'tract=024200'
p422
aS'tract=024300'
p423
aS'tract=024301'
p424
aS'tract=024302'
p425
aS'tract=024400'
p426
aS'tract=024401'
p427
aS'tract=024402'
p428
aS'tract=024500'
p429
aS'tract=024501'
p430
aS'tract=024502'
p431
aS'tract=024600'
p432
aS'tract=024700'
p433
aS'tract=024800'
p434
aS'tract=024900'
p435
aS'tract=025000'
p436
aS'tract=025100'
p437
aS'tract=025200'
p438
aS'tract=025300'
p439
aS'tract=025301'
p440
aS'tract=025302'
p441
aS'tract=025400'
p442
aS'tract=025500'
p443
aS'tract=025600'
p444
aS'tract=025700'
p445
aS'tract=025800'
p446
aS'tract=025900'
p447
aS'tract=025901'
p448
aS'tract=025902'
p449
aS'tract=026000'
p450
aS'tract=026100'
p451
aS'tract=026200'
p452
aS'tract=026300'
p453
aS'tract=026400'
p454
aS'tract=026500'
p455
aS'tract=026600'
p456
aS'tract=026601'
p457
aS'tract=026602'
p458
aS'tract=026700'
p459
aS'tract=026701'
p460
aS'tract=026702'
p461
aS'tract=026800'
p462
aS'tract=026900'
p463
aS'tract=026901'
p464
aS'tract=026902'
p465
aS'tract=027000'
p466
aS'tract=027100'
p467
aS'tract=027200'
p468
aS'tract=027300'
p469
aS'tract=027301'
p470
aS'tract=027302'
p471
aS'tract=027400'
p472
aS'tract=027401'
p473
aS'tract=027402'
p474
aS'tract=027500'
p475
aS'tract=027600'
p476
aS'tract=027700'
p477
aS'tract=027702'
p478
aS'tract=027704'
p479
aS'tract=027705'
p480
aS'tract=027706'
p481
aS'tract=027800'
p482
aS'tract=027900'
p483
aS'tract=028000'
p484
aS'tract=028100'
p485
aS'tract=028200'
p486
aS'tract=028300'
p487
aS'tract=028400'
p488
aS'tract=028500'
p489
aS'tract=028501'
p490
aS'tract=028502'
p491
aS'tract=028600'
p492
aS'tract=028700'
p493
aS'tract=028800'
p494
aS'tract=028900'
p495
aS'tract=029000'
p496
aS'tract=029100'
p497
aS'tract=029102'
p498
aS'tract=029103'
p499
aS'tract=029104'
p500
aS'tract=029200'
p501
aS'tract=029300'
p502
aS'tract=029301'
p503
aS'tract=029302'
p504
aS'tract=029400'
p505
aS'tract=029500'
p506
aS'tract=029600'
p507
aS'tract=029700'
p508
aS'tract=029800'
p509
aS'tract=029900'
p510
aS'tract=030000'
p511
aS'tract=030100'
p512
aS'tract=030200'
p513
aS'tract=030300'
p514
aS'tract=030301'
p515
aS'tract=030302'
p516
aS'tract=030400'
p517
aS'tract=030500'
p518
aS'tract=030600'
p519
aS'tract=030700'
p520
aS'tract=030701'
p521
aS'tract=030800'
p522
aS'tract=030900'
p523
aS'tract=030902'
p524
aS'tract=030903'
p525
aS'tract=030904'
p526
aS'tract=031000'
p527
aS'tract=031100'
p528
aS'tract=031200'
p529
aS'tract=031300'
p530
aS'tract=031400'
p531
aS'tract=031500'
p532
aS'tract=031600'
p533
aS'tract=031700'
p534
aS'tract=031701'
p535
aS'tract=031702'
p536
aS'tract=031703'
p537
aS'tract=031704'
p538
aS'tract=031800'
p539
aS'tract=031900'
p540
aS'tract=031901'
p541
aS'tract=031902'
p542
aS'tract=032000'
p543
aS'tract=032100'
p544
aS'tract=032300'
p545
aS'tract=032400'
p546
aS'tract=032404'
p547
aS'tract=032500'
p548
aS'tract=032600'
p549
aS'tract=032700'
p550
aS'tract=032800'
p551
aS'tract=032900'
p552
aS'tract=033000'
p553
aS'tract=033100'
p554
aS'tract=033201'
p555
aS'tract=033202'
p556
aS'tract=033300'
p557
aS'tract=033400'
p558
aS'tract=033401'
p559
aS'tract=033402'
p560
aS'tract=033500'
p561
aS'tract=033600'
p562
aS'tract=033700'
p563
aS'tract=033800'
p564
aS'tract=033900'
p565
aS'tract=034000'
p566
aS'tract=034100'
p567
aS'tract=034200'
p568
aS'tract=034300'
p569
aS'tract=034400'
p570
aS'tract=034500'
p571
aS'tract=034700'
p572
aS'tract=034800'
p573
aS'tract=034900'
p574
aS'tract=035000'
p575
aS'tract=035100'
p576
aS'tract=035200'
p577
aS'tract=035300'
p578
aS'tract=035400'
p579
aS'tract=035500'
p580
aS'tract=035600'
p581
aS'tract=035601'
p582
aS'tract=035602'
p583
aS'tract=035700'
p584
aS'tract=035800'
p585
aS'tract=035900'
p586
aS'tract=036000'
p587
aS'tract=036001'
p588
aS'tract=036002'
p589
aS'tract=036100'
p590
aS'tract=036200'
p591
aS'tract=036300'
p592
aS'tract=036400'
p593
aS'tract=036500'
p594
aS'tract=036501'
p595
aS'tract=036502'
p596
aS'tract=036600'
p597
aS'tract=036700'
p598
aS'tract=036800'
p599
aS'tract=036900'
p600
aS'tract=036901'
p601
aS'tract=036902'
p602
aS'tract=037000'
p603
aS'tract=037100'
p604
aS'tract=037200'
p605
aS'tract=037300'
p606
aS'tract=037400'
p607
aS'tract=037401'
p608
aS'tract=037402'
p609
aS'tract=037500'
p610
aS'tract=037504'
p611
aS'tract=037600'
p612
aS'tract=037700'
p613
aS'tract=037800'
p614
aS'tract=037900'
p615
aS'tract=038000'
p616
aS'tract=038100'
p617
aS'tract=038200'
p618
aS'tract=038300'
p619
aS'tract=038301'
p620
aS'tract=038302'
p621
aS'tract=038400'
p622
aS'tract=038500'
p623
aS'tract=038600'
p624
aS'tract=038700'
p625
aS'tract=038800'
p626
aS'tract=038900'
p627
aS'tract=039000'
p628
aS'tract=039100'
p629
aS'tract=039200'
p630
aS'tract=039300'
p631
aS'tract=039400'
p632
aS'tract=039500'
p633
aS'tract=039600'
p634
aS'tract=039700'
p635
aS'tract=039800'
p636
aS'tract=039900'
p637
aS'tract=039901'
p638
aS'tract=039902'
p639
aS'tract=040000'
p640
aS'tract=040100'
p641
aS'tract=040200'
p642
aS'tract=040300'
p643
aS'tract=040302'
p644
aS'tract=040303'
p645
aS'tract=040304'
p646
aS'tract=040400'
p647
aS'tract=040500'
p648
aS'tract=040501'
p649
aS'tract=040502'
p650
aS'tract=040600'
p651
aS'tract=040700'
p652
aS'tract=040701'
p653
aS'tract=040702'
p654
aS'tract=040800'
p655
aS'tract=040900'
p656
aS'tract=041000'
p657
aS'tract=041100'
p658
aS'tract=041200'
p659
aS'tract=041300'
p660
aS'tract=041400'
p661
aS'tract=041401'
p662
aS'tract=041402'
p663
aS'tract=041500'
p664
aS'tract=041600'
p665
aS'tract=041700'
p666
aS'tract=041800'
p667
aS'tract=041900'
p668
aS'tract=042000'
p669
aS'tract=042100'
p670
aS'tract=042200'
p671
aS'tract=042300'
p672
aS'tract=042400'
p673
aS'tract=042500'
p674
aS'tract=042600'
p675
aS'tract=042700'
p676
aS'tract=042800'
p677
aS'tract=042900'
p678
aS'tract=042901'
p679
aS'tract=042902'
p680
aS'tract=043000'
p681
aS'tract=043100'
p682
aS'tract=043200'
p683
aS'tract=043300'
p684
aS'tract=043400'
p685
aS'tract=043500'
p686
aS'tract=043600'
p687
aS'tract=043700'
p688
aS'tract=043701'
p689
aS'tract=043702'
p690
aS'tract=043800'
p691
aS'tract=043900'
p692
aS'tract=044000'
p693
aS'tract=044100'
p694
aS'tract=044200'
p695
aS'tract=044300'
p696
aS'tract=044301'
p697
aS'tract=044302'
p698
aS'tract=044400'
p699
aS'tract=044500'
p700
aS'tract=044600'
p701
aS'tract=044601'
p702
aS'tract=044602'
p703
aS'tract=044700'
p704
aS'tract=044800'
p705
aS'tract=044900'
p706
aS'tract=044901'
p707
aS'tract=044902'
p708
aS'tract=045000'
p709
aS'tract=045101'
p710
aS'tract=045102'
p711
aS'tract=045200'
p712
aS'tract=045300'
p713
aS'tract=045400'
p714
aS'tract=045500'
p715
aS'tract=045600'
p716
aS'tract=045700'
p717
aS'tract=045800'
p718
aS'tract=045900'
p719
aS'tract=046000'
p720
aS'tract=046100'
p721
aS'tract=046200'
p722
aS'tract=046201'
p723
aS'tract=046202'
p724
aS'tract=046300'
p725
aS'tract=046400'
p726
aS'tract=046500'
p727
aS'tract=046600'
p728
aS'tract=046700'
p729
aS'tract=046800'
p730
aS'tract=046900'
p731
aS'tract=047000'
p732
aS'tract=047100'
p733
aS'tract=047200'
p734
aS'tract=047300'
p735
aS'tract=047400'
p736
aS'tract=047500'
p737
aS'tract=047600'
p738
aS'tract=047700'
p739
aS'tract=047800'
p740
aS'tract=047900'
p741
aS'tract=048000'
p742
aS'tract=048100'
p743
aS'tract=048200'
p744
aS'tract=048300'
p745
aS'tract=048400'
p746
aS'tract=048500'
p747
aS'tract=048600'
p748
aS'tract=048800'
p749
aS'tract=048900'
p750
aS'tract=049000'
p751
aS'tract=049100'
p752
aS'tract=049200'
p753
aS'tract=049300'
p754
aS'tract=049301'
p755
aS'tract=049302'
p756
aS'tract=049400'
p757
aS'tract=049500'
p758
aS'tract=049600'
p759
aS'tract=049700'
p760
aS'tract=049800'
p761
aS'tract=049900'
p762
aS'tract=050000'
p763
aS'tract=050100'
p764
aS'tract=050201'
p765
aS'tract=050202'
p766
aS'tract=050300'
p767
aS'tract=050400'
p768
aS'tract=050500'
p769
aS'tract=050600'
p770
aS'tract=050700'
p771
aS'tract=050800'
p772
aS'tract=050801'
p773
aS'tract=050803'
p774
aS'tract=050804'
p775
aS'tract=050900'
p776
aS'tract=051000'
p777
aS'tract=051001'
p778
aS'tract=051002'
p779
aS'tract=051100'
p780
aS'tract=051200'
p781
aS'tract=051300'
p782
aS'tract=051400'
p783
aS'tract=051500'
p784
aS'tract=051600'
p785
aS'tract=051601'
p786
aS'tract=051602'
p787
aS'tract=051700'
p788
aS'tract=051800'
p789
aS'tract=051900'
p790
aS'tract=052000'
p791
aS'tract=052100'
p792
aS'tract=052200'
p793
aS'tract=052300'
p794
aS'tract=052400'
p795
aS'tract=052500'
p796
aS'tract=052600'
p797
aS'tract=052700'
p798
aS'tract=052800'
p799
aS'tract=052900'
p800
aS'tract=053000'
p801
aS'tract=053100'
p802
aS'tract=053200'
p803
aS'tract=053300'
p804
aS'tract=053400'
p805
aS'tract=053401'
p806
aS'tract=053500'
p807
aS'tract=053601'
p808
aS'tract=053700'
p809
aS'tract=053800'
p810
aS'tract=053900'
p811
aS'tract=054000'
p812
aS'tract=054200'
p813
aS'tract=054300'
p814
aS'tract=054400'
p815
aS'tract=054500'
p816
aS'tract=054600'
p817
aS'tract=054700'
p818
aS'tract=054800'
p819
aS'tract=054900'
p820
aS'tract=055000'
p821
aS'tract=055100'
p822
aS'tract=055200'
p823
aS'tract=055300'
p824
aS'tract=055400'
p825
aS'tract=055500'
p826
aS'tract=055600'
p827
aS'tract=055700'
p828
aS'tract=055800'
p829
aS'tract=055900'
p830
aS'tract=056000'
p831
aS'tract=056100'
p832
aS'tract=056200'
p833
aS'tract=056300'
p834
aS'tract=056400'
p835
aS'tract=056500'
p836
aS'tract=056600'
p837
aS'tract=056700'
p838
aS'tract=056800'
p839
aS'tract=056900'
p840
aS'tract=057000'
p841
aS'tract=057100'
p842
aS'tract=057200'
p843
aS'tract=057300'
p844
aS'tract=057400'
p845
aS'tract=057500'
p846
aS'tract=057600'
p847
aS'tract=057700'
p848
aS'tract=057800'
p849
aS'tract=057900'
p850
aS'tract=058000'
p851
aS'tract=058100'
p852
aS'tract=058200'
p853
aS'tract=058300'
p854
aS'tract=058400'
p855
aS'tract=058500'
p856
aS'tract=058600'
p857
aS'tract=058700'
p858
aS'tract=058800'
p859
aS'tract=058900'
p860
aS'tract=059000'
p861
aS'tract=059100'
p862
aS'tract=059200'
p863
aS'tract=059300'
p864
aS'tract=059400'
p865
aS'tract=059401'
p866
aS'tract=059402'
p867
aS'tract=059500'
p868
aS'tract=059600'
p869
aS'tract=059800'
p870
aS'tract=059900'
p871
aS'tract=060000'
p872
aS'tract=060100'
p873
aS'tract=060300'
p874
aS'tract=060600'
p875
aS'tract=060701'
p876
aS'tract=060800'
p877
aS'tract=061000'
p878
aS'tract=061002'
p879
aS'tract=061003'
p880
aS'tract=061004'
p881
aS'tract=061200'
p882
aS'tract=061301'
p883
aS'tract=061302'
p884
aS'tract=061400'
p885
aS'tract=061600'
p886
aS'tract=061601'
p887
aS'tract=061602'
p888
aS'tract=061800'
p889
aS'tract=061900'
p890
aS'tract=062000'
p891
aS'tract=062100'
p892
aS'tract=062200'
p893
aS'tract=062300'
p894
aS'tract=062400'
p895
aS'tract=062500'
p896
aS'tract=062600'
p897
aS'tract=062700'
p898
aS'tract=062800'
p899
aS'tract=062900'
p900
aS'tract=063000'
p901
aS'tract=063200'
p902
aS'tract=063301'
p903
aS'tract=063302'
p904
aS'tract=063500'
p905
aS'tract=063600'
p906
aS'tract=063700'
p907
aS'tract=063800'
p908
aS'tract=063900'
p909
aS'tract=064000'
p910
aS'tract=064101'
p911
aS'tract=064102'
p912
aS'tract=064200'
p913
aS'tract=064400'
p914
aS'tract=064500'
p915
aS'tract=064600'
p916
aS'tract=064800'
p917
aS'tract=065000'
p918
aS'tract=065200'
p919
aS'tract=065400'
p920
aS'tract=065501'
p921
aS'tract=065600'
p922
aS'tract=065702'
p923
aS'tract=065703'
p924
aS'tract=065800'
p925
aS'tract=065900'
p926
aS'tract=066000'
p927
aS'tract=066100'
p928
aS'tract=066200'
p929
aS'tract=066300'
p930
aS'tract=066400'
p931
aS'tract=066501'
p932
aS'tract=066600'
p933
aS'tract=066701'
p934
aS'tract=066900'
p935
aS'tract=067000'
p936
aS'tract=067100'
p937
aS'tract=067200'
p938
aS'tract=067400'
p939
aS'tract=067600'
p940
aS'tract=067700'
p941
aS'tract=067800'
p942
aS'tract=067900'
p943
aS'tract=068000'
p944
aS'tract=068200'
p945
aS'tract=068300'
p946
aS'tract=068600'
p947
aS'tract=068700'
p948
aS'tract=068800'
p949
aS'tract=069000'
p950
aS'tract=069200'
p951
aS'tract=069300'
p952
aS'tract=069400'
p953
aS'tract=069500'
p954
aS'tract=069601'
p955
aS'tract=069602'
p956
aS'tract=069701'
p957
aS'tract=069702'
p958
aS'tract=069800'
p959
aS'tract=070000'
p960
aS'tract=070201'
p961
aS'tract=070202'
p962
aS'tract=070300'
p963
aS'tract=070600'
p964
aS'tract=070700'
p965
aS'tract=070900'
p966
aS'tract=071100'
p967
aS'tract=071303'
p968
aS'tract=071304'
p969
aS'tract=071305'
p970
aS'tract=071306'
p971
aS'tract=071600'
p972
aS'tract=071701'
p973
aS'tract=071702'
p974
aS'tract=071900'
p975
aS'tract=072000'
p976
aS'tract=072100'
p977
aS'tract=072200'
p978
aS'tract=072300'
p979
aS'tract=072400'
p980
aS'tract=072600'
p981
aS'tract=072800'
p982
aS'tract=072900'
p983
aS'tract=073000'
p984
aS'tract=073100'
p985
aS'tract=073200'
p986
aS'tract=073400'
p987
aS'tract=073600'
p988
aS'tract=073700'
p989
aS'tract=073800'
p990
aS'tract=073900'
p991
aS'tract=074000'
p992
aS'tract=074100'
p993
aS'tract=074200'
p994
aS'tract=074300'
p995
aS'tract=074400'
p996
aS'tract=074500'
p997
aS'tract=074600'
p998
aS'tract=074700'
p999
aS'tract=074800'
p1000
aS'tract=074900'
p1001
aS'tract=075000'
p1002
aS'tract=075200'
p1003
aS'tract=075400'
p1004
aS'tract=075600'
p1005
aS'tract=075701'
p1006
aS'tract=075702'
p1007
aS'tract=075800'
p1008
aS'tract=076000'
p1009
aS'tract=076200'
p1010
aS'tract=076400'
p1011
aS'tract=076600'
p1012
aS'tract=076800'
p1013
aS'tract=076901'
p1014
aS'tract=076902'
p1015
aS'tract=077000'
p1016
aS'tract=077200'
p1017
aS'tract=077300'
p1018
aS'tract=077400'
p1019
aS'tract=077500'
p1020
aS'tract=077600'
p1021
aS'tract=077902'
p1022
aS'tract=077903'
p1023
aS'tract=077904'
p1024
aS'tract=077905'
p1025
aS'tract=077906'
p1026
aS'tract=077907'
p1027
aS'tract=077908'
p1028
aS'tract=078000'
p1029
aS'tract=078200'
p1030
aS'tract=078400'
p1031
aS'tract=078600'
p1032
aS'tract=078800'
p1033
aS'tract=079000'
p1034
aS'tract=079200'
p1035
aS'tract=079400'
p1036
aS'tract=079601'
p1037
aS'tract=079602'
p1038
aS'tract=079701'
p1039
aS'tract=079702'
p1040
aS'tract=079801'
p1041
aS'tract=079802'
p1042
aS'tract=079900'
p1043
aS'tract=080000'
p1044
aS'tract=080200'
p1045
aS'tract=080301'
p1046
aS'tract=080302'
p1047
aS'tract=080400'
p1048
aS'tract=080600'
p1049
aS'tract=080800'
p1050
aS'tract=080900'
p1051
aS'tract=081000'
p1052
aS'tract=081400'
p1053
aS'tract=081600'
p1054
aS'tract=081800'
p1055
aS'tract=082000'
p1056
aS'tract=082200'
p1057
aS'tract=082400'
p1058
aS'tract=082600'
p1059
aS'tract=082800'
p1060
aS'tract=083000'
p1061
aS'tract=083200'
p1062
aS'tract=083400'
p1063
aS'tract=083600'
p1064
aS'tract=083700'
p1065
aS'tract=083800'
p1066
aS'tract=084000'
p1067
aS'tract=084500'
p1068
aS'tract=084600'
p1069
aS'tract=084601'
p1070
aS'tract=084602'
p1071
aS'tract=084800'
p1072
aS'tract=084900'
p1073
aS'tract=085000'
p1074
aS'tract=085200'
p1075
aS'tract=085300'
p1076
aS'tract=085400'
p1077
aS'tract=085500'
p1078
aS'tract=085600'
p1079
aS'tract=085700'
p1080
aS'tract=085800'
p1081
aS'tract=085900'
p1082
aS'tract=086000'
p1083
aS'tract=086100'
p1084
aS'tract=086200'
p1085
aS'tract=086300'
p1086
aS'tract=086400'
p1087
aS'tract=086500'
p1088
aS'tract=086600'
p1089
aS'tract=086800'
p1090
aS'tract=086900'
p1091
aS'tract=087000'
p1092
aS'tract=087100'
p1093
aS'tract=087200'
p1094
aS'tract=087401'
p1095
aS'tract=087600'
p1096
aS'tract=087800'
p1097
aS'tract=088000'
p1098
aS'tract=088200'
p1099
aS'tract=088400'
p1100
aS'tract=088600'
p1101
aS'tract=088800'
p1102
aS'tract=088901'
p1103
aS'tract=089000'
p1104
aS'tract=089200'
p1105
aS'tract=089400'
p1106
aS'tract=089600'
p1107
aS'tract=089800'
p1108
aS'tract=090000'
p1109
aS'tract=090200'
p1110
aS'tract=090600'
p1111
aS'tract=090700'
p1112
aS'tract=090800'
p1113
aS'tract=091000'
p1114
aS'tract=091200'
p1115
aS'tract=091600'
p1116
aS'tract=091601'
p1117
aS'tract=091602'
p1118
aS'tract=091800'
p1119
aS'tract=091900'
p1120
aS'tract=092000'
p1121
aS'tract=092200'
p1122
aS'tract=092400'
p1123
aS'tract=092500'
p1124
aS'tract=092800'
p1125
aS'tract=092900'
p1126
aS'tract=093000'
p1127
aS'tract=093200'
p1128
aS'tract=093400'
p1129
aS'tract=093401'
p1130
aS'tract=093402'
p1131
aS'tract=093600'
p1132
aS'tract=093800'
p1133
aS'tract=093900'
p1134
aS'tract=094201'
p1135
aS'tract=094202'
p1136
aS'tract=094203'
p1137
aS'tract=094401'
p1138
aS'tract=094402'
p1139
aS'tract=094500'
p1140
aS'tract=094600'
p1141
aS'tract=094700'
p1142
aS'tract=095000'
p1143
aS'tract=095400'
p1144
aS'tract=095600'
p1145
aS'tract=095800'
p1146
aS'tract=096000'
p1147
aS'tract=096200'
p1148
aS'tract=096400'
p1149
aS'tract=096600'
p1150
aS'tract=096800'
p1151
aS'tract=097000'
p1152
aS'tract=097202'
p1153
aS'tract=097203'
p1154
aS'tract=097204'
p1155
aS'tract=097300'
p1156
aS'tract=097400'
p1157
aS'tract=098100'
p1158
aS'tract=098200'
p1159
aS'tract=098400'
p1160
aS'tract=098600'
p1161
aS'tract=098700'
p1162
aS'tract=098800'
p1163
aS'tract=099000'
p1164
aS'tract=099100'
p1165
aS'tract=099200'
p1166
aS'tract=099400'
p1167
aS'tract=099600'
p1168
aS'tract=099701'
p1169
aS'tract=099703'
p1170
aS'tract=099704'
p1171
aS'tract=099705'
p1172
aS'tract=099800'
p1173
aS'tract=099801'
p1174
aS'tract=099802'
p1175
aS'tract=100400'
p1176
aS'tract=100600'
p1177
aS'tract=100800'
p1178
aS'tract=100801'
p1179
aS'tract=100802'
p1180
aS'tract=101000'
p1181
aS'tract=101001'
p1182
aS'tract=101002'
p1183
aS'tract=101200'
p1184
aS'tract=101400'
p1185
aS'tract=101600'
p1186
aS'tract=101700'
p1187
aS'tract=101800'
p1188
aS'tract=102000'
p1189
aS'tract=102200'
p1190
aS'tract=102400'
p1191
aS'tract=102600'
p1192
aS'tract=102800'
p1193
aS'tract=102900'
p1194
aS'tract=103201'
p1195
aS'tract=103202'
p1196
aS'tract=103300'
p1197
aS'tract=103400'
p1198
aS'tract=103900'
p1199
aS'tract=104700'
p1200
aS'tract=105801'
p1201
aS'tract=105804'
p1202
aS'tract=105900'
p1203
aS'tract=107000'
p1204
aS'tract=107201'
p1205
aS'tract=107800'
p1206
aS'tract=108500'
p1207
aS'tract=109300'
p1208
aS'tract=109700'
p1209
aS'tract=109800'
p1210
aS'tract=109900'
p1211
aS'tract=110400'
p1212
aS'tract=110600'
p1213
aS'tract=111000'
p1214
aS'tract=111300'
p1215
aS'tract=111600'
p1216
aS'tract=111800'
p1217
aS'tract=112000'
p1218
aS'tract=112200'
p1219
aS'tract=112300'
p1220
aS'tract=112400'
p1221
aS'tract=112600'
p1222
aS'tract=112800'
p1223
aS'tract=112900'
p1224
aS'tract=113000'
p1225
aS'tract=113200'
p1226
aS'tract=113300'
p1227
aS'tract=113400'
p1228
aS'tract=113900'
p1229
aS'tract=114100'
p1230
aS'tract=114201'
p1231
aS'tract=114202'
p1232
aS'tract=114400'
p1233
aS'tract=114600'
p1234
aS'tract=114700'
p1235
aS'tract=115000'
p1236
aS'tract=115100'
p1237
aS'tract=115200'
p1238
aS'tract=115500'
p1239
aS'tract=115600'
p1240
aS'tract=115700'
p1241
aS'tract=115800'
p1242
aS'tract=115900'
p1243
aS'tract=116000'
p1244
aS'tract=116100'
p1245
aS'tract=116200'
p1246
aS'tract=116300'
p1247
aS'tract=116400'
p1248
aS'tract=116600'
p1249
aS'tract=116700'
p1250
aS'tract=116800'
p1251
aS'tract=117000'
p1252
aS'tract=117100'
p1253
aS'tract=117201'
p1254
aS'tract=117202'
p1255
aS'tract=117400'
p1256
aS'tract=117500'
p1257
aS'tract=117601'
p1258
aS'tract=117602'
p1259
aS'tract=117800'
p1260
aS'tract=118000'
p1261
aS'tract=118100'
p1262
aS'tract=118201'
p1263
aS'tract=118202'
p1264
aS'tract=118400'
p1265
aS'tract=118500'
p1266
aS'tract=118600'
p1267
aS'tract=118700'
p1268
aS'tract=118800'
p1269
aS'tract=118900'
p1270
aS'tract=119000'
p1271
aS'tract=119100'
p1272
aS'tract=119200'
p1273
aS'tract=119300'
p1274
aS'tract=119400'
p1275
aS'tract=119500'
p1276
aS'tract=119600'
p1277
aS'tract=119800'
p1278
aS'tract=119900'
p1279
aS'tract=120000'
p1280
aS'tract=120100'
p1281
aS'tract=120200'
p1282
aS'tract=120300'
p1283
aS'tract=120500'
p1284
aS'tract=120700'
p1285
aS'tract=120800'
p1286
aS'tract=121000'
p1287
aS'tract=121100'
p1288
aS'tract=121400'
p1289
aS'tract=121500'
p1290
aS'tract=122000'
p1291
aS'tract=122300'
p1292
aS'tract=122701'
p1293
aS'tract=122702'
p1294
aS'tract=123700'
p1295
aS'tract=124100'
p1296
aS'tract=124700'
p1297
aS'tract=125700'
p1298
aS'tract=126500'
p1299
aS'tract=126700'
p1300
aS'tract=127700'
p1301
aS'tract=128300'
p1302
aS'tract=129102'
p1303
aS'tract=129103'
p1304
aS'tract=129104'
p1305
aS'tract=130100'
p1306
aS'tract=133300'
p1307
aS'tract=133900'
p1308
aS'tract=134100'
p1309
aS'tract=134700'
p1310
aS'tract=136700'
p1311
aS'tract=137700'
p1312
aS'tract=138501'
p1313
aS'tract=138502'
p1314
aS'tract=139900'
p1315
aS'tract=140300'
p1316
aS'tract=140901'
p1317
aS'tract=140902'
p1318
aS'tract=141700'
p1319
aS'tract=142900'
p1320
aS'tract=143500'
p1321
aS'tract=144100'
p1322
aS'tract=144700'
p1323
aS'tract=145101'
p1324
aS'tract=145102'
p1325
aS'tract=145900'
p1326
aS'tract=146300'
p1327
aS'tract=146700'
p1328
aS'tract=147100'
p1329
aS'tract=147900'
p1330
aS'tract=148300'
p1331
aS'tract=150200'
p1332
aS'tract=150701'
p1333
aS'tract=150702'
p1334
aS'tract=152200'
p1335
aS'tract=152901'
p1336
aS'tract=152902'
p1337
aS'tract=155101'
p1338
aS'tract=155102'
p1339
aS'tract=156700'
p1340
aS'tract=157101'
p1341
aS'tract=157102'
p1342
aS'tract=157901'
p1343
aS'tract=157902'
p1344
aS'tract=157903'
p1345
aS'tract=161700'
p1346
aS'tract=162100'
p1347
aS'tract=404300'
p1348
aS'tract=404500'
p1349
aS'tract=409900'
p1350
aS'tract=410300'
p1351
aS'tract=410400'
p1352
aS'tract=411000'
p1353
aS'tract=411600'
p1354
asS'dtype'
p1355
cnumpy
float64
p1356
sS'vocabulary_'
p1357
(dp1358
g1149
I1140
sg96
I87
sg888
I879
sg1067
I1058
sg87
I78
sg250
I241
sg335
I326
sg496
I487
sg1080
I1071
sg919
I910
sg262
I253
sg916
I907
sg1208
I1199
sg1155
I1146
sg174
I165
sg307
I298
sg824
I815
sg1094
I1085
sg724
I715
sg134
I125
sg722
I713
sg586
I577
sg618
I609
sg945
I936
sg1295
I1286
sg994
I985
sg1281
I1272
sg153
I144
sg165
I156
sg48
I39
sg220
I211
sg1083
I1074
sg544
I535
sg730
I721
sg63
I54
sg883
I874
sg792
I783
sg470
I461
sg781
I772
sg330
I321
sg473
I464
sg1165
I1156
sg997
I988
sg569
I560
sg401
I392
sg435
I426
sg652
I643
sg32
I23
sg300
I291
sg682
I673
sg1007
I998
sg856
I847
sg526
I517
sg463
I454
sg1243
I1234
sg344
I335
sg392
I383
sg346
I337
sg605
I596
sg909
I900
sg603
I594
sg1228
I1219
sg986
I977
sg50
I41
sg1193
I1184
sg802
I793
sg175
I166
sg1301
I1292
sg1066
I1057
sg158
I149
sg1347
I1338
sg123
I114
sg732
I723
sg394
I385
sg941
I932
sg494
I485
sg271
I262
sg662
I653
sg1019
I1010
sg729
I720
sg1137
I1128
sg663
I654
sg1011
I1002
sg1093
I1084
sg805
I796
sg778
I769
sg777
I768
sg1169
I1160
sg331
I322
sg1334
I1325
sg839
I830
sg212
I203
sg1166
I1157
sg1124
I1115
sg889
I880
sg1246
I1237
sg1141
I1132
sg685
I676
sg1108
I1099
sg36
I27
sg570
I561
sg814
I805
sg1075
I1066
sg850
I841
sg1262
I1253
sg752
I743
sg1060
I1051
sg46
I37
sg527
I518
sg611
I602
sg112
I103
sg602
I593
sg625
I616
sg610
I601
sg1142
I1133
sg1001
I992
sg830
I821
sg578
I569
sg1026
I1017
sg1027
I1018
sg128
I119
sg1022
I1013
sg596
I587
sg949
I940
sg348
I339
sg347
I338
sg370
I361
sg371
I362
sg372
I363
sg784
I775
sg420
I411
sg1217
I1208
sg410
I401
sg74
I65
sg75
I66
sg76
I67
sg322
I313
sg1240
I1231
sg875
I866
sg1249
I1240
sg453
I444
sg274
I265
sg443
I434
sg512
I503
sg947
I938
sg804
I795
sg242
I233
sg90
I81
sg161
I152
sg1056
I1047
sg1337
I1328
sg206
I197
sg851
I842
sg224
I215
sg431
I422
sg976
I967
sg1101
I1092
sg1314
I1305
sg532
I523
sg1313
I1304
sg234
I225
sg716
I707
sg232
I223
sg233
I224
sg853
I844
sg641
I632
sg1332
I1323
sg1353
I1344
sg928
I919
sg990
I981
sg1053
I1044
sg674
I665
sg895
I886
sg1341
I1332
sg847
I838
sg127
I118
sg1277
I1268
sg436
I427
sg704
I695
sg62
I53
sg558
I549
sg60
I51
sg61
I52
sg902
I893
sg906
I897
sg73
I64
sg255
I246
sg338
I329
sg1065
I1056
sg340
I331
sg612
I603
sg995
I986
sg957
I948
sg261
I252
sg727
I718
sg227
I218
sg406
I397
sg405
I396
sg404
I395
sg1005
I996
sg585
I576
sg791
I782
sg753
I744
sg1191
I1182
sg1098
I1089
sg1307
I1298
sg241
I232
sg1264
I1255
sg446
I437
sg832
I823
sg816
I807
sg249
I240
sg290
I281
sg844
I835
sg715
I706
sg1254
I1245
sg861
I852
sg221
I212
sg86
I77
sg1268
I1259
sg1296
I1287
sg654
I645
sg1063
I1054
sg1276
I1267
sg189
I180
sg231
I222
sg1263
I1254
sg764
I755
sg1178
I1169
sg1179
I1170
sg1180
I1171
sg44
I35
sg1260
I1251
sg737
I728
sg1346
I1337
sg573
I564
sg328
I319
sg703
I694
sg1289
I1280
sg1274
I1265
sg1112
I1103
sg1121
I1112
sg411
I402
sg884
I875
sg395
I386
sg137
I128
sg68
I59
sg1162
I1153
sg66
I57
sg67
I58
sg550
I541
sg746
I737
sg1062
I1053
sg634
I625
sg1194
I1185
sg664
I655
sg577
I568
sg83
I74
sg1133
I1124
sg240
I231
sg1002
I993
sg31
I22
sg459
I450
sg673
I664
sg461
I452
sg794
I785
sg1292
I1283
sg1036
I1027
sg890
I881
sg848
I839
sg369
I360
sg368
I359
sg367
I358
sg1174
I1165
sg787
I778
sg786
I777
sg1175
I1166
sg770
I761
sg803
I794
sg317
I308
sg1271
I1262
sg1076
I1067
sg364
I355
sg218
I209
sg565
I556
sg195
I186
sg194
I185
sg266
I257
sg1349
I1340
sg306
I297
sg657
I648
sg735
I726
sg1298
I1289
sg717
I708
sg936
I927
sg1087
I1078
sg965
I956
sg1288
I1279
sg553
I544
sg487
I478
sg600
I591
sg178
I169
sg142
I133
sg176
I167
sg510
I501
sg705
I696
sg1329
I1320
sg517
I508
sg636
I627
sg911
I902
sg912
I903
sg130
I121
sg592
I583
sg1201
I1192
sg876
I867
sg359
I350
sg302
I293
sg357
I348
sg358
I349
sg309
I300
sg308
I299
sg310
I301
sg1350
I1341
sg363
I354
sg869
I860
sg33
I24
sg670
I661
sg301
I292
sg20
I11
sg19
I10
sg21
I12
sg973
I964
sg1259
I1250
sg974
I965
sg1258
I1249
sg962
I953
sg467
I458
sg81
I72
sg1115
I1106
sg1222
I1213
sg1205
I1196
sg103
I94
sg102
I93
sg1057
I1048
sg104
I95
sg1017
I1008
sg1059
I1050
sg881
I872
sg1235
I1226
sg282
I273
sg1020
I1011
sg281
I272
sg520
I511
sg943
I934
sg819
I810
sg280
I271
sg868
I859
sg872
I863
sg821
I812
sg841
I832
sg183
I174
sg1269
I1260
sg184
I175
sg952
I943
sg488
I479
sg15
I6
sg882
I873
sg878
I869
sg505
I496
sg574
I565
sg14
I5
sg701
I692
sg837
I828
sg28
I19
sg668
I659
sg551
I542
sg860
I851
sg16
I7
sg758
I749
sg1021
I1012
sg983
I974
sg597
I588
sg416
I407
sg476
I467
sg621
I612
sg828
I819
sg583
I574
sg582
I573
sg785
I776
sg1006
I997
sg1126
I1117
sg1048
I1039
sg576
I567
sg30
I21
sg397
I388
sg1106
I1097
sg203
I194
sg1041
I1032
sg627
I618
sg1182
I1173
sg1181
I1172
sg1317
I1308
sg718
I709
sg294
I285
sg1318
I1309
sg700
I691
sg51
I42
sg354
I345
sg940
I931
sg1085
I1076
sg495
I486
sg270
I261
sg353
I344
sg1164
I1155
sg93
I84
sg187
I178
sg95
I86
sg1213
I1204
sg1216
I1207
sg993
I984
sg1146
I1137
sg795
I786
sg170
I161
sg433
I424
sg256
I247
sg215
I206
sg921
I912
sg564
I555
sg1247
I1238
sg1299
I1290
sg1239
I1230
sg1016
I1007
sg1109
I1100
sg185
I176
sg316
I307
sg315
I306
sg314
I305
sg1310
I1301
sg1272
I1263
sg1280
I1271
sg456
I447
sg1144
I1135
sg482
I473
sg152
I143
sg1084
I1075
sg1339
I1330
sg1340
I1331
sg660
I651
sg731
I722
sg743
I734
sg113
I104
sg1049
I1040
sg760
I751
sg1265
I1256
sg725
I716
sg1206
I1197
sg481
I472
sg651
I642
sg996
I987
sg568
I559
sg100
I91
sg509
I500
sg1168
I1159
sg1198
I1189
sg887
I878
sg475
I466
sg681
I672
sg810
I801
sg1029
I1020
sg655
I646
sg504
I495
sg393
I384
sg1223
I1214
sg606
I597
sg396
I387
sg1042
I1033
sg341
I332
sg427
I418
sg426
I417
sg428
I419
sg157
I148
sg155
I146
sg156
I147
sg1238
I1229
sg118
I109
sg833
I824
sg756
I747
sg918
I909
sg754
I745
sg244
I235
sg243
I234
sg1242
I1233
sg245
I236
sg492
I483
sg726
I717
sg1244
I1235
sg963
I954
sg1136
I1127
sg1092
I1083
sg1140
I1131
sg631
I622
sg1285
I1276
sg780
I771
sg991
I982
sg214
I205
sg213
I204
sg892
I883
sg477
I468
sg1123
I1114
sg216
I207
sg1291
I1282
sg1237
I1228
sg972
I963
sg1128
I1119
sg1135
I1126
sg91
I82
sg813
I804
sg419
I410
sg389
I380
sg1090
I1081
sg388
I379
sg387
I378
sg601
I592
sg1079
I1070
sg390
I381
sg751
I742
sg958
I949
sg24
I15
sg45
I36
sg528
I519
sg689
I680
sg209
I200
sg690
I681
sg650
I641
sg855
I846
sg648
I639
sg177
I168
sg1218
I1209
sg145
I136
sg719
I710
sg1147
I1138
sg349
I340
sg144
I135
sg1315
I1306
sg421
I412
sg159
I150
sg1309
I1300
sg779
I770
sg251
I242
sg160
I151
sg54
I45
sg252
I243
sg79
I70
sg1250
I1241
sg445
I436
sg273
I264
sg797
I788
sg801
I792
sg1158
I1149
sg948
I939
sg454
I445
sg324
I315
sg1150
I1141
sg891
I882
sg896
I887
sg164
I155
sg711
I702
sg1130
I1121
sg677
I668
sg225
I216
sg149
I140
sg979
I970
sg1185
I1176
sg1321
I1312
sg138
I129
sg688
I679
sg41
I32
sg642
I633
sg42
I33
sg511
I502
sg929
I920
sg971
I962
sg871
I862
sg615
I606
sg400
I391
sg1236
I1227
sg398
I389
sg399
I390
sg1229
I1220
sg559
I550
sg263
I254
sg561
I552
sg533
I524
sg1279
I1270
sg1031
I1022
sg35
I26
sg1176
I1167
sg1335
I1326
sg115
I106
sg114
I105
sg1064
I1055
sg886
I877
sg613
I604
sg901
I892
sg1119
I1110
sg276
I267
sg334
I325
sg332
I323
sg333
I324
sg180
I171
sg1214
I1205
sg647
I638
sg1302
I1293
sg403
I394
sg417
I408
sg55
I46
sg788
I779
sg653
I644
sg955
I946
sg1219
I1210
sg72
I63
sg1122
I1113
sg800
I791
sg692
I683
sg248
I239
sg934
I925
sg451
I442
sg247
I238
sg1134
I1125
sg498
I489
sg714
I705
sg168
I159
sg169
I160
sg1050
I1041
sg862
I853
sg222
I213
sg88
I79
sg845
I836
sg1010
I1001
sg956
I947
sg954
I945
sg1038
I1029
sg437
I428
sg228
I219
sg229
I220
sg763
I754
sg202
I193
sg201
I192
sg350
I341
sg1343
I1334
sg739
I730
sg1345
I1336
sg1344
I1335
sg110
I101
sg1071
I1062
sg1290
I1281
sg790
I781
sg326
I317
sg899
I890
sg64
I55
sg65
I56
sg1275
I1266
sg1161
I1152
sg71
I62
sg723
I714
sg562
I553
sg549
I540
sg747
I738
sg635
I626
sg809
I800
sg352
I343
sg661
I652
sg143
I134
sg342
I333
sg1320
I1311
sg383
I374
sg409
I400
sg408
I399
sg595
I586
sg594
I585
sg765
I756
sg782
I773
sg1190
I1181
sg762
I753
sg630
I621
sg639
I630
sg637
I628
sg638
I629
sg1054
I1045
sg1081
I1072
sg462
I453
sg321
I312
sg126
I117
sg172
I163
sg951
I942
sg1118
I1109
sg366
I357
sg1116
I1107
sg873
I864
sg84
I75
sg740
I731
sg1270
I1261
sg959
I950
sg863
I854
sg1225
I1216
sg1322
I1313
sg305
I296
sg304
I295
sg904
I895
sg193
I184
sg1143
I1134
sg1211
I1202
sg966
I957
sg734
I725
sg1061
I1052
sg988
I979
sg1088
I1079
sg964
I955
sg666
I657
sg37
I28
sg554
I545
sg484
I475
sg418
I409
sg146
I137
sg204
I195
sg179
I170
sg1210
I1201
sg205
I196
sg644
I635
sg207
I198
sg699
I690
sg1255
I1246
sg686
I677
sg516
I507
sg515
I506
sg514
I505
sg133
I124
sg1070
I1061
sg591
I582
sg442
I433
sg1154
I1145
sg1153
I1144
sg1024
I1015
sg1025
I1016
sg910
I901
sg599
I590
sg1052
I1043
sg826
I817
sg575
I566
sg384
I375
sg385
I376
sg386
I377
sg969
I960
sg796
I787
sg22
I13
sg23
I14
sg455
I446
sg675
I666
sg1035
I1026
sg981
I972
sg1257
I1248
sg1297
I1288
sg466
I457
sg362
I353
sg365
I356
sg961
I952
sg415
I406
sg1008
I999
sg523
I514
sg1023
I1014
sg101
I92
sg885
I876
sg768
I759
sg1018
I1009
sg1326
I1317
sg140
I131
sg1104
I1095
sg1233
I1224
sg894
I885
sg710
I701
sg519
I510
sg931
I922
sg942
I933
sg288
I279
sg789
I780
sg124
I115
sg659
I650
sg1095
I1086
sg903
I894
sg1068
I1059
sg938
I929
sg1089
I1080
sg489
I480
sg490
I481
sg491
I482
sg508
I499
sg836
I827
sg733
I724
sg1132
I1123
sg563
I554
sg854
I845
sg667
I658
sg196
I187
sg859
I850
sg1117
I1108
sg757
I748
sg982
I973
sg1261
I1252
sg529
I520
sg808
I799
sg926
I917
sg584
I575
sg1045
I1036
sg590
I581
sg769
I760
sg1078
I1069
sg917
I908
sg1125
I1116
sg744
I735
sg1221
I1212
sg1028
I1019
sg736
I727
sg548
I539
sg1043
I1034
sg632
I623
sg626
I617
sg536
I527
sg53
I44
sg12
I3
sg1145
I1136
sg119
I110
sg52
I43
sg121
I112
sg774
I765
sg1159
I1150
sg376
I367
sg469
I460
sg10
I1
sg356
I347
sg269
I260
sg930
I921
sg188
I179
sg767
I758
sg773
I764
sg992
I983
sg198
I189
sg108
I99
sg1230
I1221
sg13
I4
sg835
I826
sg672
I663
sg933
I924
sg524
I515
sg257
I248
sg483
I474
sg806
I797
sg422
I413
sg18
I9
sg1327
I1318
sg1157
I1148
sg521
I512
sg186
I177
sg1248
I1239
sg313
I304
sg311
I302
sg312
I303
sg1186
I1177
sg1283
I1274
sg1163
I1154
sg40
I31
sg608
I599
sg543
I534
sg1188
I1179
sg151
I142
sg607
I598
sg26
I17
sg914
I905
sg968
I959
sg1311
I1302
sg920
I911
sg1102
I1093
sg822
I813
sg623
I614
sg749
I740
sg609
I600
sg720
I711
sg122
I113
sg798
I789
sg1224
I1215
sg1312
I1303
sg99
I90
sg567
I558
sg97
I88
sg98
I89
sg1037
I1028
sg1170
I1161
sg1304
I1295
sg825
I816
sg649
I640
sg1107
I1098
sg741
I732
sg472
I463
sg684
I675
sg474
I465
sg460
I451
sg656
I647
sg239
I230
sg870
I861
sg697
I688
sg1111
I1102
sg1300
I1291
sg379
I370
sg378
I369
sg377
I368
sg1328
I1319
sg984
I975
sg1323
I1314
sg429
I420
sg430
I421
sg1226
I1217
sg678
I669
sg679
I670
sg680
I671
sg1127
I1118
sg978
I969
sg811
I802
sg238
I229
sg260
I251
sg259
I250
sg258
I249
sg236
I227
sg237
I228
sg702
I693
sg173
I164
sg1245
I1236
sg823
I814
sg1012
I1003
sg712
I703
sg135
I126
sg624
I615
sg708
I699
sg776
I767
sg766
I757
sg696
I687
sg217
I208
sg154
I145
sg219
I210
sg166
I157
sg706
I697
sg1039
I1030
sg1305
I1296
sg1294
I1285
sg1293
I1284
sg539
I530
sg840
I831
sg92
I83
sg1336
I1327
sg879
I870
sg880
I871
sg1148
I1139
sg783
I774
sg1348
I1339
sg391
I382
sg106
I97
sg858
I849
sg1173
I1164
sg893
I884
sg998
I989
sg402
I393
sg687
I678
sg434
I425
sg1192
I1183
sg34
I25
sg977
I968
sg1209
I1200
sg1204
I1195
sg1030
I1021
sg343
I334
sg1073
I1064
sg698
I689
sg905
I896
sg323
I314
sg750
I741
sg253
I244
sg47
I38
sg432
I423
sg1033
I1024
sg78
I69
sg616
I607
sg296
I287
sg1251
I1242
sg923
I914
sg272
I263
sg499
I490
sg922
I913
sg838
I829
sg497
I488
sg163
I154
sg423
I414
sg1199
I1190
sg500
I491
sg109
I100
sg985
I976
sg1325
I1316
sg171
I162
sg1324
I1315
sg525
I516
sg211
I202
sg139
I130
sg43
I34
sg643
I634
sg38
I29
sg39
I30
sg645
I636
sg646
I637
sg709
I700
sg254
I245
sg571
I562
sg812
I803
sg120
I111
sg669
I660
sg849
I840
sg11
I2
sg534
I525
sg535
I526
sg1278
I1269
sg537
I528
sg538
I529
sg556
I547
sg555
I546
sg581
I572
sg1091
I1082
sg817
I808
sg117
I108
sg867
I858
sg1139
I1130
sg620
I611
sg1138
I1129
sg1120
I1111
sg1110
I1101
sg275
I266
sg619
I610
sg329
I320
sg1351
I1342
sg877
I868
sg1009
I1000
sg1331
I1322
sg373
I364
sg374
I365
sg1215
I1206
sg56
I47
sg355
I346
sg1333
I1324
sg1220
I1211
sg77
I68
sg268
I259
sg449
I440
sg1241
I1232
sg325
I316
sg799
I790
sg1308
I1299
sg452
I443
sg57
I48
sg1342
I1333
sg82
I73
sg1203
I1194
sg927
I918
sg1252
I1243
sg501
I492
sg1338
I1329
sg320
I311
sg223
I214
sg89
I80
sg162
I153
sg116
I107
sg1200
I1191
sg953
I944
sg713
I704
sg1099
I1090
sg531
I522
sg1051
I1042
sg235
I226
sg1096
I1087
sg200
I191
sg999
I990
sg728
I719
sg738
I729
sg671
I662
sg132
I123
sg818
I809
sg852
I843
sg1156
I1147
sg148
I139
sg846
I837
sg1013
I1004
sg1266
I1257
sg898
I889
sg199
I190
sg1113
I1104
sg70
I61
sg59
I50
sg58
I49
sg1072
I1063
sg748
I739
sg1032
I1023
sg907
I898
sg604
I595
sg1077
I1068
sg572
I563
sg279
I270
sg337
I328
sg448
I439
sg447
I438
sg458
I449
sg560
I551
sg944
I935
sg345
I336
sg407
I398
sg589
I580
sg593
I584
sg1151
I1142
sg975
I966
sg579
I570
sg761
I752
sg980
I971
sg440
I431
sg439
I430
sg441
I432
sg465
I456
sg829
I820
sg226
I217
sg464
I455
sg471
I462
sg129
I120
sg1183
I1174
sg932
I923
sg1055
I1046
sg289
I280
sg295
I286
sg85
I76
sg843
I834
sg793
I784
sg1003
I994
sg864
I855
sg1152
I1143
sg1273
I1264
sg1267
I1258
sg542
I533
sg924
I915
sg540
I531
sg541
I532
sg191
I182
sg190
I181
sg1160
I1151
sg192
I183
sg1177
I1168
sg842
I833
sg339
I330
sg1232
I1223
sg1231
I1222
sg587
I578
sg1197
I1188
sg755
I746
sg707
I698
sg327
I318
sg485
I476
sg246
I237
sg414
I405
sg413
I404
sg412
I403
sg831
I822
sg691
I682
sg136
I127
sg1189
I1180
sg640
I631
sg1171
I1162
sg513
I504
sg633
I624
sg588
I579
sg1184
I1175
sg665
I656
sg1207
I1198
sg827
I818
sg820
I811
sg167
I158
sg375
I366
sg80
I71
sg1354
I1345
sg694
I685
sg1253
I1244
sg444
I435
sg1330
I1321
sg1172
I1163
sg1100
I1091
sg457
I448
sg815
I806
sg676
I667
sg351
I342
sg1256
I1247
sg1097
I1088
sg361
I352
sg1114
I1105
sg480
I471
sg479
I470
sg478
I469
sg950
I941
sg299
I290
sg336
I327
sg900
I891
sg771
I762
sg502
I493
sg1058
I1049
sg141
I132
sg1069
I1060
sg970
I961
sg742
I733
sg264
I255
sg150
I141
sg265
I256
sg125
I116
sg658
I649
sg1202
I1193
sg937
I928
sg989
I980
sg1287
I1278
sg507
I498
sg557
I548
sg486
I477
sg614
I605
sg1167
I1158
sg518
I509
sg1284
I1275
sg1015
I1006
sg1352
I1343
sg503
I494
sg438
I429
sg925
I916
sg131
I122
sg1319
I1310
sg1046
I1037
sg1047
I1038
sg298
I289
sg1187
I1178
sg1074
I1065
sg360
I351
sg303
I294
sg745
I736
sg547
I538
sg69
I60
sg230
I221
sg546
I537
sg908
I899
sg1082
I1073
sg772
I763
sg1014
I1005
sg49
I40
sg775
I766
sg277
I268
sg967
I958
sg1034
I1025
sg617
I608
sg939
I930
sg468
I459
sg25
I16
sg857
I848
sg935
I926
sg267
I258
sg1212
I1203
sg493
I484
sg147
I138
sg107
I98
sg197
I188
sg105
I96
sg506
I497
sg522
I513
sg629
I620
sg1105
I1096
sg1234
I1225
sg425
I416
sg297
I288
sg807
I798
sg424
I415
sg1086
I1077
sg278
I269
sg866
I857
sg865
I856
sg874
I865
sg208
I199
sg181
I172
sg695
I686
sg182
I173
sg319
I310
sg318
I309
sg960
I951
sg628
I619
sg1282
I1273
sg987
I978
sg1303
I1294
sg450
I441
sg1306
I1297
sg1131
I1122
sg1286
I1277
sg1129
I1120
sg915
I906
sg27
I18
sg1316
I1307
sg552
I543
sg530
I521
sg759
I750
sg1103
I1094
sg622
I613
sg598
I589
sg913
I904
sg721
I712
sg580
I571
sg1044
I1035
sg1227
I1218
sg284
I275
sg834
I825
sg566
I557
sg545
I536
sg111
I102
sg897
I888
sg1040
I1031
sg29
I20
sg94
I85
sg1000
I991
sg9
I0
sg693
I684
sg683
I674
sg1196
I1187
sg1195
I1186
sg210
I201
sg293
I284
sg292
I283
sg291
I282
sg285
I276
sg286
I277
sg287
I278
sg17
I8
sg283
I274
sg1004
I995
sg382
I373
sg946
I937
sg380
I371
sg381
I372
ssS'separator'
p1359
S'='
sS'sparse'
p1360
I01
sb.